ccopy_reg
_reconstructor
p0
(cTransitSystem
TransitSystem
p1
c__builtin__
object
p2
Ntp3
Rp4
(dp5
S'routes'
p6
(dp7
S'1'
p8
g0
(cTransitSystem
Route
p9
g2
Ntp10
Rp11
(dp12
S'name'
p13
g8
sS'stations'
p14
(lp15
g0
(cTransitSystem
Station
p16
g2
Ntp17
Rp18
(dp19
S'latitude'
p20
F40.702068
sg6
(lp21
g11
asS'id'
p22
S'142'
p23
sS'longitude'
p24
F-74.013664
sg13
S'South Ferry'
p25
sbag0
(g16
g2
Ntp26
Rp27
(dp28
g20
F40.707513
sg6
(lp29
g11
asg22
S'139'
p30
sg24
F-74.013783
sg13
S'Rector St'
p31
sbag0
(g16
g2
Ntp32
Rp33
(dp34
g20
F40.711835
sg6
(lp35
g11
asg22
S'138'
p36
sg24
F-74.012188
sg13
S'Cortlandt St'
p37
sbag0
(g16
g2
Ntp38
Rp39
(dp40
g20
F40.715478
sg6
(lp41
g11
ag0
(g9
g2
Ntp42
Rp43
(dp44
g13
S'3'
p45
sg14
(lp46
g0
(g16
g2
Ntp47
Rp48
(dp49
g20
F40.666235
sg6
(lp50
g43
asg22
S'257'
p51
sg24
F-73.884079
sg13
S'New Lots Av'
p52
sbag0
(g16
g2
Ntp53
Rp54
(dp55
g20
F40.665449
sg6
(lp56
g43
asg22
S'256'
p57
sg24
F-73.889395
sg13
S'Van Siclen Av'
p58
sbag0
(g16
g2
Ntp59
Rp60
(dp61
g20
F40.664635
sg6
(lp62
g43
asg22
S'255'
p63
sg24
F-73.894895
sg13
S'Pennsylvania Av'
p64
sbag0
(g16
g2
Ntp65
Rp66
(dp67
g20
F40.663515
sg6
(lp68
g43
asg22
S'254'
p69
sg24
F-73.902447
sg13
S'Junius St'
p70
sbag0
(g16
g2
Ntp71
Rp72
(dp73
g20
F40.662549
sg6
(lp74
g43
asg22
S'253'
p75
sg24
F-73.908946
sg13
S'Rockaway Av'
p76
sbag0
(g16
g2
Ntp77
Rp78
(dp79
g20
F40.661453
sg6
(lp80
g43
asg22
S'252'
p81
sg24
F-73.916327
sg13
S'Saratoga Av'
p82
sbag0
(g16
g2
Ntp83
Rp84
(dp85
g20
F40.664717
sg6
(lp86
g43
asg22
S'251'
p87
sg24
F-73.92261
sg13
S'Sutter Av - Rutland Rd'
p88
sbag0
(g16
g2
Ntp89
Rp90
(dp91
g20
F40.668897
sg6
(lp92
g43
ag0
(g9
g2
Ntp93
Rp94
(dp95
g13
S'4'
p96
sg14
(lp97
g90
ag0
(g16
g2
Ntp98
Rp99
(dp100
g20
F40.670682
sg6
(lp101
g43
ag0
(g9
g2
Ntp102
Rp103
(dp104
g13
S'2'
p105
sg14
(lp106
g0
(g16
g2
Ntp107
Rp108
(dp109
g20
F40.632836
sg6
(lp110
g103
ag0
(g9
g2
Ntp111
Rp112
(dp113
g13
S'5'
p114
sg14
(lp115
g108
ag0
(g16
g2
Ntp116
Rp117
(dp118
g20
F40.639967
sg6
(lp119
g103
ag112
asg22
S'246'
p120
sg24
F-73.948411
sg13
S'Newkirk Av'
p121
sbag0
(g16
g2
Ntp122
Rp123
(dp124
g20
F40.645098
sg6
(lp125
g103
ag112
asg22
S'245'
p126
sg24
F-73.948959
sg13
S'Beverly Rd'
p127
sbag0
(g16
g2
Ntp128
Rp129
(dp130
g20
F40.650843
sg6
(lp131
g103
ag112
asg22
S'244'
p132
sg24
F-73.949575
sg13
S'Church Av'
p133
sbag0
(g16
g2
Ntp134
Rp135
(dp136
g20
F40.656652
sg6
(lp137
g103
ag112
asg22
S'243'
p138
sg24
F-73.9502
sg13
S'Winthrop St'
p139
sbag0
(g16
g2
Ntp140
Rp141
(dp142
g20
F40.662742
sg6
(lp143
g103
ag112
asg22
S'242'
p144
sg24
F-73.95085
sg13
S'Sterling St'
p145
sbag0
(g16
g2
Ntp146
Rp147
(dp148
g20
F40.667883
sg6
(lp149
g103
ag112
asg22
S'241'
p150
sg24
F-73.950683
sg13
S'President St'
p151
sbag99
ag0
(g16
g2
Ntp152
Rp153
(dp154
g20
F40.684359
sg6
(lp155
g43
ag103
ag112
ag94
asg22
S'235'
p156
sg24
F-73.977666
sg13
S'Atlantic Av'
p157
sbag0
(g16
g2
Ntp158
Rp159
(dp160
g20
F40.688246
sg6
(lp161
g43
ag103
ag112
ag94
asg22
S'234'
p162
sg24
F-73.980492
sg13
S'Nevins St'
p163
sbag0
(g16
g2
Ntp164
Rp165
(dp166
g20
F40.692404
sg6
(lp167
g112
ag94
asg22
S'423'
p168
sg24
F-73.990151
sg13
S'Borough Hall'
p169
sbag0
(g16
g2
Ntp170
Rp171
(dp172
g20
F40.704817
sg6
(lp173
g112
ag94
asg22
S'420'
p174
sg24
F-74.014065
sg13
S'Bowling Green'
p175
sbag0
(g16
g2
Ntp176
Rp177
(dp178
g20
F40.707557
sg6
(lp179
g112
ag94
asg22
S'419'
p180
sg24
F-74.011862
sg13
S'Wall St'
p181
sbag0
(g16
g2
Ntp182
Rp183
(dp184
g20
F40.710368
sg6
(lp185
g112
ag94
asg22
S'418'
p186
sg24
F-74.009509
sg13
S'Fulton St'
p187
sbag0
(g16
g2
Ntp188
Rp189
(dp190
g20
F40.713065
sg6
(lp191
g112
ag94
ag0
(g9
g2
Ntp192
Rp193
(dp194
g13
S'6'
p195
sg14
(lp196
g189
ag0
(g16
g2
Ntp197
Rp198
(dp199
g20
F40.718803
sg6
(lp200
g193
asg22
S'639'
p201
sg24
F-74.000193
sg13
S'Canal St'
p202
sbag0
(g16
g2
Ntp203
Rp204
(dp205
g20
F40.722301
sg6
(lp206
g193
asg22
S'638'
p207
sg24
F-73.997141
sg13
S'Spring St'
p208
sbag0
(g16
g2
Ntp209
Rp210
(dp211
g20
F40.725915
sg6
(lp212
g193
asg22
S'637'
p213
sg24
F-73.994659
sg13
S'Bleecker St'
p214
sbag0
(g16
g2
Ntp215
Rp216
(dp217
g20
F40.730054
sg6
(lp218
g193
asg22
S'636'
p219
sg24
F-73.99107
sg13
S'Astor Pl'
p220
sbag0
(g16
g2
Ntp221
Rp222
(dp223
g20
F40.734673
sg6
(lp224
g112
ag94
ag193
asg22
S'635'
p225
sg24
F-73.989951
sg13
S'14 St - Union Sq'
p226
sbag0
(g16
g2
Ntp227
Rp228
(dp229
g20
F40.739864
sg6
(lp230
g193
asg22
S'634'
p231
sg24
F-73.986599
sg13
S'23 St'
p232
sbag0
(g16
g2
Ntp233
Rp234
(dp235
g20
F40.74307
sg6
(lp236
g193
asg22
S'633'
p237
sg24
F-73.984264
sg13
S'28 St'
p238
sbag0
(g16
g2
Ntp239
Rp240
(dp241
g20
F40.746081
sg6
(lp242
g193
asg22
S'632'
p243
sg24
F-73.982076
sg13
S'33 St'
p244
sbag0
(g16
g2
Ntp245
Rp246
(dp247
g20
F40.751776
sg6
(lp248
g112
ag94
ag193
asg22
S'631'
p249
sg24
F-73.976848
sg13
S'Grand Central - 42 St'
p250
sbag0
(g16
g2
Ntp251
Rp252
(dp253
g20
F40.757107
sg6
(lp254
g193
asg22
S'630'
p255
sg24
F-73.97192
sg13
S'51 St'
p256
sbag0
(g16
g2
Ntp257
Rp258
(dp259
g20
F40.762526
sg6
(lp260
g112
ag94
ag193
asg22
S'629'
p261
sg24
F-73.967967
sg13
S'59 St'
p262
sbag0
(g16
g2
Ntp263
Rp264
(dp265
g20
F40.768141
sg6
(lp266
g193
asg22
S'628'
p267
sg24
F-73.96387
sg13
S'68 St - Hunter College'
p268
sbag0
(g16
g2
Ntp269
Rp270
(dp271
g20
F40.77362
sg6
(lp272
g193
asg22
S'627'
p273
sg24
F-73.959874
sg13
S'77 St'
p274
sbag0
(g16
g2
Ntp275
Rp276
(dp277
g20
F40.779492
sg6
(lp278
g112
ag94
ag193
asg22
S'626'
p279
sg24
F-73.955589
sg13
S'86 St'
p280
sbag0
(g16
g2
Ntp281
Rp282
(dp283
g20
F40.785672
sg6
(lp284
g193
asg22
S'625'
p285
sg24
F-73.95107
sg13
S'96 St'
p286
sbag0
(g16
g2
Ntp287
Rp288
(dp289
g20
F40.7906
sg6
(lp290
g193
asg22
S'624'
p291
sg24
F-73.947478
sg13
S'103 St'
p292
sbag0
(g16
g2
Ntp293
Rp294
(dp295
g20
F40.79502
sg6
(lp296
g193
asg22
S'623'
p297
sg24
F-73.94425
sg13
S'110 St'
p298
sbag0
(g16
g2
Ntp299
Rp300
(dp301
g20
F40.798629
sg6
(lp302
g193
asg22
S'622'
p303
sg24
F-73.941617
sg13
S'116 St'
p304
sbag0
(g16
g2
Ntp305
Rp306
(dp307
g20
F40.804138
sg6
(lp308
g112
ag94
ag193
asg22
S'621'
p309
sg24
F-73.937594
sg13
S'125 St'
p310
sbag0
(g16
g2
Ntp311
Rp312
(dp313
g20
F40.810476
sg6
(lp314
g193
asg22
S'619'
p315
sg24
F-73.926138
sg13
S'3 Av - 138 St'
p316
sbag0
(g16
g2
Ntp317
Rp318
(dp319
g20
F40.807566
sg6
(lp320
g193
asg22
S'618'
p321
sg24
F-73.91924
sg13
S'Brook Av'
p322
sbag0
(g16
g2
Ntp323
Rp324
(dp325
g20
F40.805368
sg6
(lp326
g193
asg22
S'617'
p327
sg24
F-73.914042
sg13
S'Cypress Av'
p328
sbag0
(g16
g2
Ntp329
Rp330
(dp331
g20
F40.808719
sg6
(lp332
g193
asg22
S'616'
p333
sg24
F-73.907657
sg13
S"E 143 St - St Mary's St"
p334
sbag0
(g16
g2
Ntp335
Rp336
(dp337
g20
F40.812118
sg6
(lp338
g193
asg22
S'615'
p339
sg24
F-73.904098
sg13
S'E 149 St'
p340
sbag0
(g16
g2
Ntp341
Rp342
(dp343
g20
F40.816104
sg6
(lp344
g193
asg22
S'614'
p345
sg24
F-73.896435
sg13
S'Longwood Av'
p346
sbag0
(g16
g2
Ntp347
Rp348
(dp349
g20
F40.820948
sg6
(lp350
g193
asg22
S'613'
p351
sg24
F-73.890549
sg13
S'Hunts Point Av'
p352
sbag0
(g16
g2
Ntp353
Rp354
(dp355
g20
F40.826525
sg6
(lp356
g193
asg22
S'612'
p357
sg24
F-73.886283
sg13
S'Whitlock Av'
p358
sbag0
(g16
g2
Ntp359
Rp360
(dp361
g20
F40.828584
sg6
(lp362
g193
asg22
S'611'
p363
sg24
F-73.879159
sg13
S'Elder Av'
p364
sbag0
(g16
g2
Ntp365
Rp366
(dp367
g20
F40.829521
sg6
(lp368
g193
asg22
S'610'
p369
sg24
F-73.874516
sg13
S'Morrison Av- Sound View'
p370
sbag0
(g16
g2
Ntp371
Rp372
(dp373
g20
F40.831509
sg6
(lp374
g193
asg22
S'609'
p375
sg24
F-73.867618
sg13
S'St Lawrence Av'
p376
sbag0
(g16
g2
Ntp377
Rp378
(dp379
g20
F40.833226
sg6
(lp380
g193
asg22
S'608'
p381
sg24
F-73.860816
sg13
S'Parkchester'
p382
sbag0
(g16
g2
Ntp383
Rp384
(dp385
g20
F40.834255
sg6
(lp386
g193
asg22
S'607'
p387
sg24
F-73.851222
sg13
S'Castle Hill Av'
p388
sbag0
(g16
g2
Ntp389
Rp390
(dp391
g20
F40.836488
sg6
(lp392
g193
asg22
S'606'
p393
sg24
F-73.847036
sg13
S'Zerega Av'
p394
sbag0
(g16
g2
Ntp395
Rp396
(dp397
g20
F40.839892
sg6
(lp398
g193
asg22
S'604'
p399
sg24
F-73.842952
sg13
S'Westchester Sq - E Tremont Av'
p400
sbag0
(g16
g2
Ntp401
Rp402
(dp403
g20
F40.843863
sg6
(lp404
g193
asg22
S'603'
p405
sg24
F-73.836322
sg13
S'Middletown Rd'
p406
sbag0
(g16
g2
Ntp407
Rp408
(dp409
g20
F40.84681
sg6
(lp410
g193
asg22
S'602'
p411
sg24
F-73.832569
sg13
S'Buhre Av'
p412
sbag0
(g16
g2
Ntp413
Rp414
(dp415
g20
F40.852462
sg6
(lp416
g193
asg22
S'601'
p417
sg24
F-73.828121
sg13
S'Pelham Bay Park'
p418
sbasbasg22
S'640'
p419
sg24
F-74.004131
sg13
S'Brooklyn Bridge - City Hall'
p420
sbag222
ag246
ag258
ag276
ag306
ag0
(g16
g2
Ntp421
Rp422
(dp423
g20
F40.813224
sg6
(lp424
g112
ag94
asg22
S'416'
p425
sg24
F-73.929849
sg13
S'138 St - Grand Concourse'
p426
sbag0
(g16
g2
Ntp427
Rp428
(dp429
g20
F40.81841
sg6
(lp430
g103
ag112
asg22
S'222'
p431
sg24
F-73.926718
sg13
S'149 St - Grand Concourse'
p432
sbag0
(g16
g2
Ntp433
Rp434
(dp435
g20
F40.816109
sg6
(lp436
g103
ag112
asg22
S'221'
p437
sg24
F-73.917757
sg13
S'3 Av - 149 St'
p438
sbag0
(g16
g2
Ntp439
Rp440
(dp441
g20
F40.81649
sg6
(lp442
g103
ag112
asg22
S'220'
p443
sg24
F-73.907807
sg13
S'Jackson Av'
p444
sbag0
(g16
g2
Ntp445
Rp446
(dp447
g20
F40.819585
sg6
(lp448
g103
ag112
asg22
S'219'
p449
sg24
F-73.90177
sg13
S'Prospect Av'
p450
sbag0
(g16
g2
Ntp451
Rp452
(dp453
g20
F40.822181
sg6
(lp454
g103
ag112
asg22
S'218'
p455
sg24
F-73.896736
sg13
S'Intervale Av'
p456
sbag0
(g16
g2
Ntp457
Rp458
(dp459
g20
F40.824073
sg6
(lp460
g103
ag112
asg22
S'217'
p461
sg24
F-73.893064
sg13
S'Simpson St'
p462
sbag0
(g16
g2
Ntp463
Rp464
(dp465
g20
F40.829993
sg6
(lp466
g103
ag112
asg22
S'216'
p467
sg24
F-73.891865
sg13
S'Freeman St'
p468
sbag0
(g16
g2
Ntp469
Rp470
(dp471
g20
F40.837288
sg6
(lp472
g103
ag112
asg22
S'215'
p473
sg24
F-73.887734
sg13
S'174 St'
p474
sbag0
(g16
g2
Ntp475
Rp476
(dp477
g20
F40.840295
sg6
(lp478
g103
ag112
asg22
S'214'
p479
sg24
F-73.880049
sg13
S'West Farms Sq - E Tremont Av'
p480
sbag0
(g16
g2
Ntp481
Rp482
(dp483
g20
F40.841894
sg6
(lp484
g103
ag112
asg22
S'213'
p485
sg24
F-73.873488
sg13
S'E 180 St'
p486
sbag0
(g16
g2
Ntp487
Rp488
(dp489
g20
F40.854364
sg6
(lp490
g112
asg22
S'505'
p491
sg24
F-73.860495
sg13
S'Morris Park'
p492
sbag0
(g16
g2
Ntp493
Rp494
(dp495
g20
F40.858985
sg6
(lp496
g112
asg22
S'504'
p497
sg24
F-73.855359
sg13
S'Pelham Pkwy'
p498
sbag0
(g16
g2
Ntp499
Rp500
(dp501
g20
F40.869526
sg6
(lp502
g112
asg22
S'503'
p503
sg24
F-73.846384
sg13
S'Gun Hill Rd'
p504
sbag0
(g16
g2
Ntp505
Rp506
(dp507
g20
F40.878663
sg6
(lp508
g112
asg22
S'502'
p509
sg24
F-73.838591
sg13
S'Baychester Av'
p510
sbag0
(g16
g2
Ntp511
Rp512
(dp513
g20
F40.8883
sg6
(lp514
g112
asg22
S'501'
p515
sg24
F-73.830834
sg13
S'Eastchester - Dyre Av'
p516
sbasbasg22
S'247'
p517
sg24
F-73.947642
sg13
S'Flatbush Av - Brooklyn College'
p518
sbag117
ag123
ag129
ag135
ag141
ag147
ag99
ag0
(g16
g2
Ntp519
Rp520
(dp521
g20
F40.671987
sg6
(lp522
g43
ag103
asg22
S'238'
p523
sg24
F-73.964375
sg13
S'Eastern Pkwy - Brooklyn Museum'
p524
sbag0
(g16
g2
Ntp525
Rp526
(dp527
g20
F40.675235
sg6
(lp528
g43
ag103
asg22
S'237'
p529
sg24
F-73.971046
sg13
S'Grand Army Plaza'
p530
sbag0
(g16
g2
Ntp531
Rp532
(dp533
g20
F40.680829
sg6
(lp534
g43
ag103
asg22
S'236'
p535
sg24
F-73.975098
sg13
S'Bergen St'
p536
sbag153
ag159
ag0
(g16
g2
Ntp537
Rp538
(dp539
g20
F40.690545
sg6
(lp540
g43
ag103
asg22
S'233'
p541
sg24
F-73.985065
sg13
S'Hoyt St'
p542
sbag0
(g16
g2
Ntp543
Rp544
(dp545
g20
F40.693219
sg6
(lp546
g43
ag103
asg22
S'232'
p547
sg24
F-73.989998
sg13
S'Borough Hall'
p548
sbag0
(g16
g2
Ntp549
Rp550
(dp551
g20
F40.697466
sg6
(lp552
g43
ag103
asg22
S'231'
p553
sg24
F-73.993086
sg13
S'Clark St'
p554
sbag0
(g16
g2
Ntp555
Rp556
(dp557
g20
F40.706821
sg6
(lp558
g43
ag103
asg22
S'230'
p559
sg24
F-74.0091
sg13
S'Wall St'
p560
sbag0
(g16
g2
Ntp561
Rp562
(dp563
g20
F40.709416
sg6
(lp564
g43
ag103
asg22
S'229'
p565
sg24
F-74.006571
sg13
S'Fulton St'
p566
sbag0
(g16
g2
Ntp567
Rp568
(dp569
g20
F40.713051
sg6
(lp570
g43
ag103
asg22
S'228'
p571
sg24
F-74.008811
sg13
S'Park Pl'
p572
sbag39
ag0
(g16
g2
Ntp573
Rp574
(dp575
g20
F40.737826
sg6
(lp576
g11
ag43
ag103
asg22
S'132'
p577
sg24
F-74.000201
sg13
S'14 St'
p578
sbag0
(g16
g2
Ntp579
Rp580
(dp581
g20
F40.750373
sg6
(lp582
g11
ag43
ag103
asg22
S'128'
p583
sg24
F-73.991057
sg13
S'34 St - Penn Station'
p584
sbag0
(g16
g2
Ntp585
Rp586
(dp587
g20
F40.75529
sg6
(lp588
g11
ag43
ag103
asg22
S'127'
p589
sg24
F-73.987495
sg13
S'Times Sq - 42 St'
p590
sbag0
(g16
g2
Ntp591
Rp592
(dp593
g20
F40.778453
sg6
(lp594
g11
ag43
ag103
asg22
S'123'
p595
sg24
F-73.98197
sg13
S'72 St'
p596
sbag0
(g16
g2
Ntp597
Rp598
(dp599
g20
F40.793919
sg6
(lp600
g11
ag43
ag103
asg22
S'120'
p601
sg24
F-73.972323
sg13
S'96 St'
p602
sbag0
(g16
g2
Ntp603
Rp604
(dp605
g20
F40.799075
sg6
(lp606
g43
ag103
asg22
S'227'
p607
sg24
F-73.951822
sg13
S'Central Park North (110 St)'
p608
sbag0
(g16
g2
Ntp609
Rp610
(dp611
g20
F40.802098
sg6
(lp612
g43
ag103
asg22
S'226'
p613
sg24
F-73.949625
sg13
S'116 St'
p614
sbag0
(g16
g2
Ntp615
Rp616
(dp617
g20
F40.807754
sg6
(lp618
g43
ag103
asg22
S'225'
p619
sg24
F-73.945495
sg13
S'125 St'
p620
sbag0
(g16
g2
Ntp621
Rp622
(dp623
g20
F40.814229
sg6
(lp624
g43
ag103
asg22
S'224'
p625
sg24
F-73.94077
sg13
S'135 St'
p626
sbag428
ag434
ag440
ag446
ag452
ag458
ag464
ag470
ag476
ag482
ag0
(g16
g2
Ntp627
Rp628
(dp629
g20
F40.848828
sg6
(lp630
g103
asg22
S'212'
p631
sg24
F-73.868457
sg13
S'Bronx Park East'
p632
sbag0
(g16
g2
Ntp633
Rp634
(dp635
g20
F40.857192
sg6
(lp636
g103
asg22
S'211'
p637
sg24
F-73.867615
sg13
S'Pelham Pkwy'
p638
sbag0
(g16
g2
Ntp639
Rp640
(dp641
g20
F40.865462
sg6
(lp642
g103
asg22
S'210'
p643
sg24
F-73.867352
sg13
S'Allerton Av'
p644
sbag0
(g16
g2
Ntp645
Rp646
(dp647
g20
F40.871356
sg6
(lp648
g103
asg22
S'209'
p649
sg24
F-73.867164
sg13
S'Burke Av'
p650
sbag0
(g16
g2
Ntp651
Rp652
(dp653
g20
F40.87785
sg6
(lp654
g103
asg22
S'208'
p655
sg24
F-73.866256
sg13
S'Gun Hill Rd'
p656
sbag0
(g16
g2
Ntp657
Rp658
(dp659
g20
F40.883895
sg6
(lp660
g103
asg22
S'207'
p661
sg24
F-73.862633
sg13
S'219 St'
p662
sbag0
(g16
g2
Ntp663
Rp664
(dp665
g20
F40.888022
sg6
(lp666
g103
asg22
S'206'
p667
sg24
F-73.860341
sg13
S'225 St'
p668
sbag0
(g16
g2
Ntp669
Rp670
(dp671
g20
F40.893193
sg6
(lp672
g103
asg22
S'205'
p673
sg24
F-73.857473
sg13
S'233 St'
p674
sbag0
(g16
g2
Ntp675
Rp676
(dp677
g20
F40.898379
sg6
(lp678
g103
asg22
S'204'
p679
sg24
F-73.854376
sg13
S'Nereid Av'
p680
sbag0
(g16
g2
Ntp681
Rp682
(dp683
g20
F40.903125
sg6
(lp684
g103
asg22
S'201'
p685
sg24
F-73.85062
sg13
S'Wakefield - 241 St'
p686
sbasbag112
ag94
asg22
S'239'
p687
sg24
F-73.958131
sg13
S'Franklin Av'
p688
sbag153
ag159
ag165
ag171
ag177
ag183
ag189
ag222
ag246
ag258
ag276
ag306
ag422
ag0
(g16
g2
Ntp689
Rp690
(dp691
g20
F40.818375
sg6
(lp692
g94
asg22
S'415'
p693
sg24
F-73.927351
sg13
S'149 St - Grand Concourse'
p694
sbag0
(g16
g2
Ntp695
Rp696
(dp697
g20
F40.827994
sg6
(lp698
g94
asg22
S'414'
p699
sg24
F-73.925831
sg13
S'161 St - Yankee Stadium'
p700
sbag0
(g16
g2
Ntp701
Rp702
(dp703
g20
F40.835537
sg6
(lp704
g94
asg22
S'413'
p705
sg24
F-73.9214
sg13
S'167 St'
p706
sbag0
(g16
g2
Ntp707
Rp708
(dp709
g20
F40.840075
sg6
(lp710
g94
asg22
S'412'
p711
sg24
F-73.917791
sg13
S'170 St'
p712
sbag0
(g16
g2
Ntp713
Rp714
(dp715
g20
F40.844434
sg6
(lp716
g94
asg22
S'411'
p717
sg24
F-73.914685
sg13
S'Mt Eden Av'
p718
sbag0
(g16
g2
Ntp719
Rp720
(dp721
g20
F40.84848
sg6
(lp722
g94
asg22
S'410'
p723
sg24
F-73.911794
sg13
S'176 St'
p724
sbag0
(g16
g2
Ntp725
Rp726
(dp727
g20
F40.853453
sg6
(lp728
g94
asg22
S'409'
p729
sg24
F-73.907684
sg13
S'Burnside Av'
p730
sbag0
(g16
g2
Ntp731
Rp732
(dp733
g20
F40.858407
sg6
(lp734
g94
asg22
S'408'
p735
sg24
F-73.903879
sg13
S'183 St'
p736
sbag0
(g16
g2
Ntp737
Rp738
(dp739
g20
F40.862803
sg6
(lp740
g94
asg22
S'407'
p741
sg24
F-73.901034
sg13
S'Fordham Rd'
p742
sbag0
(g16
g2
Ntp743
Rp744
(dp745
g20
F40.86776
sg6
(lp746
g94
asg22
S'406'
p747
sg24
F-73.897174
sg13
S'Kingsbridge Rd'
p748
sbag0
(g16
g2
Ntp749
Rp750
(dp751
g20
F40.873412
sg6
(lp752
g94
asg22
S'405'
p753
sg24
F-73.890064
sg13
S'Bedford Park Blvd - Lehman College'
p754
sbag0
(g16
g2
Ntp755
Rp756
(dp757
g20
F40.87975
sg6
(lp758
g94
asg22
S'402'
p759
sg24
F-73.884655
sg13
S'Mosholu Pkwy'
p760
sbag0
(g16
g2
Ntp761
Rp762
(dp763
g20
F40.886037
sg6
(lp764
g94
asg22
S'401'
p765
sg24
F-73.878751
sg13
S'Woodlawn'
p766
sbasbasg22
S'250'
p767
sg24
F-73.932942
sg13
S'Crown Hts - Utica Av'
p768
sbag0
(g16
g2
Ntp769
Rp770
(dp771
g20
F40.669399
sg6
(lp772
g43
asg22
S'249'
p773
sg24
F-73.942161
sg13
S'Kingston Av'
p774
sbag0
(g16
g2
Ntp775
Rp776
(dp777
g20
F40.669847
sg6
(lp778
g43
asg22
S'248'
p779
sg24
F-73.950466
sg13
S'Nostrand Av'
p780
sbag99
ag520
ag526
ag532
ag153
ag159
ag538
ag544
ag550
ag556
ag562
ag568
ag39
ag574
ag580
ag586
ag592
ag598
ag604
ag610
ag616
ag622
ag0
(g16
g2
Ntp781
Rp782
(dp783
g20
F40.820421
sg6
(lp784
g43
asg22
S'302'
p785
sg24
F-73.936245
sg13
S'145 St'
p786
sbag0
(g16
g2
Ntp787
Rp788
(dp789
g20
F40.82388
sg6
(lp790
g43
asg22
S'301'
p791
sg24
F-73.93647
sg13
S'Harlem - 148 St'
p792
sbasbag103
asg22
S'137'
p793
sg24
F-74.009266
sg13
S'Chambers St'
p794
sbag0
(g16
g2
Ntp795
Rp796
(dp797
g20
F40.719318
sg6
(lp798
g11
asg22
S'136'
p799
sg24
F-74.006886
sg13
S'Franklin St'
p800
sbag0
(g16
g2
Ntp801
Rp802
(dp803
g20
F40.722854
sg6
(lp804
g11
asg22
S'135'
p805
sg24
F-74.006277
sg13
S'Canal St'
p806
sbag0
(g16
g2
Ntp807
Rp808
(dp809
g20
F40.728251
sg6
(lp810
g11
asg22
S'134'
p811
sg24
F-74.005367
sg13
S'Houston St'
p812
sbag0
(g16
g2
Ntp813
Rp814
(dp815
g20
F40.733422
sg6
(lp816
g11
asg22
S'133'
p817
sg24
F-74.002906
sg13
S'Christopher St - Sheridan Sq'
p818
sbag574
ag0
(g16
g2
Ntp819
Rp820
(dp821
g20
F40.74104
sg6
(lp822
g11
asg22
S'131'
p823
sg24
F-73.997871
sg13
S'18 St'
p824
sbag0
(g16
g2
Ntp825
Rp826
(dp827
g20
F40.744081
sg6
(lp828
g11
asg22
S'130'
p829
sg24
F-73.995657
sg13
S'23 St'
p830
sbag0
(g16
g2
Ntp831
Rp832
(dp833
g20
F40.747215
sg6
(lp834
g11
asg22
S'129'
p835
sg24
F-73.993365
sg13
S'28 St'
p836
sbag580
ag586
ag0
(g16
g2
Ntp837
Rp838
(dp839
g20
F40.761728
sg6
(lp840
g11
asg22
S'126'
p841
sg24
F-73.983849
sg13
S'50 St'
p842
sbag0
(g16
g2
Ntp843
Rp844
(dp845
g20
F40.768247
sg6
(lp846
g11
asg22
S'125'
p847
sg24
F-73.981929
sg13
S'59 St - Columbus Circle'
p848
sbag0
(g16
g2
Ntp849
Rp850
(dp851
g20
F40.77344
sg6
(lp852
g11
asg22
S'124'
p853
sg24
F-73.982209
sg13
S'66 St - Lincoln Center'
p854
sbag592
ag0
(g16
g2
Ntp855
Rp856
(dp857
g20
F40.783934
sg6
(lp858
g11
asg22
S'122'
p859
sg24
F-73.979917
sg13
S'79 St'
p860
sbag0
(g16
g2
Ntp861
Rp862
(dp863
g20
F40.788644
sg6
(lp864
g11
asg22
S'121'
p865
sg24
F-73.976218
sg13
S'86 St'
p866
sbag598
ag0
(g16
g2
Ntp867
Rp868
(dp869
g20
F40.799446
sg6
(lp870
g11
asg22
S'119'
p871
sg24
F-73.968379
sg13
S'103 St'
p872
sbag0
(g16
g2
Ntp873
Rp874
(dp875
g20
F40.803967
sg6
(lp876
g11
asg22
S'118'
p877
sg24
F-73.966847
sg13
S'Cathedral Pkwy'
p878
sbag0
(g16
g2
Ntp879
Rp880
(dp881
g20
F40.807722
sg6
(lp882
g11
asg22
S'117'
p883
sg24
F-73.96411
sg13
S'116 St - Columbia University'
p884
sbag0
(g16
g2
Ntp885
Rp886
(dp887
g20
F40.815581
sg6
(lp888
g11
asg22
S'116'
p889
sg24
F-73.958372
sg13
S'125 St'
p890
sbag0
(g16
g2
Ntp891
Rp892
(dp893
g20
F40.822008
sg6
(lp894
g11
asg22
S'115'
p895
sg24
F-73.953676
sg13
S'137 St - City College'
p896
sbag0
(g16
g2
Ntp897
Rp898
(dp899
g20
F40.826551
sg6
(lp900
g11
asg22
S'114'
p901
sg24
F-73.95036
sg13
S'145 St'
p902
sbag0
(g16
g2
Ntp903
Rp904
(dp905
g20
F40.834041
sg6
(lp906
g11
asg22
S'113'
p907
sg24
F-73.94489
sg13
S'157 St'
p908
sbag0
(g16
g2
Ntp909
Rp910
(dp911
g20
F40.840556
sg6
(lp912
g11
asg22
S'112'
p913
sg24
F-73.940133
sg13
S'168 St - Washington Hts'
p914
sbag0
(g16
g2
Ntp915
Rp916
(dp917
g20
F40.849505
sg6
(lp918
g11
asg22
S'111'
p919
sg24
F-73.933596
sg13
S'181 St'
p920
sbag0
(g16
g2
Ntp921
Rp922
(dp923
g20
F40.855225
sg6
(lp924
g11
asg22
S'110'
p925
sg24
F-73.929412
sg13
S'191 St'
p926
sbag0
(g16
g2
Ntp927
Rp928
(dp929
g20
F40.860531
sg6
(lp930
g11
asg22
S'109'
p931
sg24
F-73.925536
sg13
S'Dyckman St'
p932
sbag0
(g16
g2
Ntp933
Rp934
(dp935
g20
F40.864621
sg6
(lp936
g11
asg22
S'108'
p937
sg24
F-73.918822
sg13
S'207 St'
p938
sbag0
(g16
g2
Ntp939
Rp940
(dp941
g20
F40.869444
sg6
(lp942
g11
asg22
S'107'
p943
sg24
F-73.915279
sg13
S'215 St'
p944
sbag0
(g16
g2
Ntp945
Rp946
(dp947
g20
F40.874561
sg6
(lp948
g11
asg22
S'106'
p949
sg24
F-73.909831
sg13
S'Marble Hill - 225 St'
p950
sbag0
(g16
g2
Ntp951
Rp952
(dp953
g20
F40.878856
sg6
(lp954
g11
asg22
S'104'
p955
sg24
F-73.904834
sg13
S'231 St'
p956
sbag0
(g16
g2
Ntp957
Rp958
(dp959
g20
F40.884667
sg6
(lp960
g11
asg22
S'103'
p961
sg24
F-73.90087
sg13
S'238 St'
p962
sbag0
(g16
g2
Ntp963
Rp964
(dp965
g20
F40.889248
sg6
(lp966
g11
asg22
S'101'
p967
sg24
F-73.898583
sg13
S'Van Cortlandt Park - 242 St'
p968
sbasbsg45
g43
sg105
g103
sg114
g112
sg96
g94
sS'7'
p969
g0
(g9
g2
Ntp970
Rp971
(dp972
g13
g969
sg14
(lp973
g0
(g16
g2
Ntp974
Rp975
(dp976
g20
F40.755477
sg6
(lp977
g971
asg22
S'725'
p978
sg24
F-73.987691
sg13
S'Times Sq - 42 St'
p979
sbag0
(g16
g2
Ntp980
Rp981
(dp982
g20
F40.753821
sg6
(lp983
g971
asg22
S'724'
p984
sg24
F-73.981963
sg13
S'5 Av'
p985
sbag0
(g16
g2
Ntp986
Rp987
(dp988
g20
F40.751431
sg6
(lp989
g971
asg22
S'723'
p990
sg24
F-73.976041
sg13
S'Grand Central - 42 St'
p991
sbag0
(g16
g2
Ntp992
Rp993
(dp994
g20
F40.742626
sg6
(lp995
g971
asg22
S'721'
p996
sg24
F-73.953581
sg13
S'Vernon Blvd - Jackson Av'
p997
sbag0
(g16
g2
Ntp998
Rp999
(dp1000
g20
F40.742216
sg6
(lp1001
g971
asg22
S'720'
p1002
sg24
F-73.948916
sg13
S'Hunters Point Av'
p1003
sbag0
(g16
g2
Ntp1004
Rp1005
(dp1006
g20
F40.747023
sg6
(lp1007
g971
asg22
S'719'
p1008
sg24
F-73.945264
sg13
S'45 Rd - Court House Sq'
p1009
sbag0
(g16
g2
Ntp1010
Rp1011
(dp1012
g20
F40.750582
sg6
(lp1013
g971
asg22
S'718'
p1014
sg24
F-73.940202
sg13
S'Queensboro Plaza'
p1015
sbag0
(g16
g2
Ntp1016
Rp1017
(dp1018
g20
F40.744587
sg6
(lp1019
g971
asg22
S'716'
p1020
sg24
F-73.930997
sg13
S'33 St'
p1021
sbag0
(g16
g2
Ntp1022
Rp1023
(dp1024
g20
F40.743781
sg6
(lp1025
g971
asg22
S'715'
p1026
sg24
F-73.924016
sg13
S'40 St'
p1027
sbag0
(g16
g2
Ntp1028
Rp1029
(dp1030
g20
F40.743132
sg6
(lp1031
g971
asg22
S'714'
p1032
sg24
F-73.918435
sg13
S'46 St'
p1033
sbag0
(g16
g2
Ntp1034
Rp1035
(dp1036
g20
F40.744149
sg6
(lp1037
g971
asg22
S'713'
p1038
sg24
F-73.912549
sg13
S'52 St'
p1039
sbag0
(g16
g2
Ntp1040
Rp1041
(dp1042
g20
F40.74563
sg6
(lp1043
g971
asg22
S'712'
p1044
sg24
F-73.902984
sg13
S'Woodside - 61 St'
p1045
sbag0
(g16
g2
Ntp1046
Rp1047
(dp1048
g20
F40.746325
sg6
(lp1049
g971
asg22
S'711'
p1050
sg24
F-73.896403
sg13
S'69 St'
p1051
sbag0
(g16
g2
Ntp1052
Rp1053
(dp1054
g20
F40.746848
sg6
(lp1055
g971
asg22
S'710'
p1056
sg24
F-73.891394
sg13
S'74 St - Broadway'
p1057
sbag0
(g16
g2
Ntp1058
Rp1059
(dp1060
g20
F40.747659
sg6
(lp1061
g971
asg22
S'709'
p1062
sg24
F-73.883697
sg13
S'82 St - Jackson Hts'
p1063
sbag0
(g16
g2
Ntp1064
Rp1065
(dp1066
g20
F40.748408
sg6
(lp1067
g971
asg22
S'708'
p1068
sg24
F-73.876613
sg13
S'90 St - Elmhurst Av'
p1069
sbag0
(g16
g2
Ntp1070
Rp1071
(dp1072
g20
F40.749145
sg6
(lp1073
g971
asg22
S'707'
p1074
sg24
F-73.869527
sg13
S'Junction Blvd'
p1075
sbag0
(g16
g2
Ntp1076
Rp1077
(dp1078
g20
F40.749865
sg6
(lp1079
g971
asg22
S'706'
p1080
sg24
F-73.8627
sg13
S'103 St - Corona Plaza'
p1081
sbag0
(g16
g2
Ntp1082
Rp1083
(dp1084
g20
F40.75173
sg6
(lp1085
g971
asg22
S'705'
p1086
sg24
F-73.855334
sg13
S'111 St'
p1087
sbag0
(g16
g2
Ntp1088
Rp1089
(dp1090
g20
F40.754622
sg6
(lp1091
g971
asg22
S'702'
p1092
sg24
F-73.845625
sg13
S'Mets - Willets Point'
p1093
sbag0
(g16
g2
Ntp1094
Rp1095
(dp1096
g20
F40.7596
sg6
(lp1097
g971
asg22
S'701'
p1098
sg24
F-73.83003
sg13
S'Flushing - Main St'
p1099
sbasbsg195
g193
sS'A'
p1100
g0
(g9
g2
Ntp1101
Rp1102
(dp1103
g13
g1100
sg14
(lp1104
g0
(g16
g2
Ntp1105
Rp1106
(dp1107
g20
F40.603995
sg6
(lp1108
g1102
asg22
S'H11'
p1109
sg24
F-73.755405
sg13
S'Far Rockaway - Mott Av'
p1110
sbag0
(g16
g2
Ntp1111
Rp1112
(dp1113
g20
F40.600066
sg6
(lp1114
g1102
asg22
S'H10'
p1115
sg24
F-73.761353
sg13
S'Beach 25 St'
p1116
sbag0
(g16
g2
Ntp1117
Rp1118
(dp1119
g20
F40.595398
sg6
(lp1120
g1102
asg22
S'H09'
p1121
sg24
F-73.768175
sg13
S'Beach 36 St'
p1122
sbag0
(g16
g2
Ntp1123
Rp1124
(dp1125
g20
F40.592943
sg6
(lp1126
g1102
asg22
S'H08'
p1127
sg24
F-73.776013
sg13
S'Beach 44 St'
p1128
sbag0
(g16
g2
Ntp1129
Rp1130
(dp1131
g20
F40.592374
sg6
(lp1132
g1102
asg22
S'H07'
p1133
sg24
F-73.788522
sg13
S'Beach 60 St'
p1134
sbag0
(g16
g2
Ntp1135
Rp1136
(dp1137
g20
F40.590927
sg6
(lp1138
g1102
asg22
S'H06'
p1139
sg24
F-73.796924
sg13
S'Beach 67 St'
p1140
sbag0
(g16
g2
Ntp1141
Rp1142
(dp1143
g20
F40.608382
sg6
(lp1144
g1102
ag0
(g9
g2
Ntp1145
Rp1146
(dp1147
g13
S'H'
p1148
sg14
(lp1149
g0
(g16
g2
Ntp1150
Rp1151
(dp1152
g20
F40.580903
sg6
(lp1153
g1146
asg22
S'H15'
p1154
sg24
F-73.835592
sg13
S'Rockaway Park - Beach 116 St'
p1155
sbag0
(g16
g2
Ntp1156
Rp1157
(dp1158
g20
F40.583209
sg6
(lp1159
g1146
asg22
S'H14'
p1160
sg24
F-73.827559
sg13
S'Beach 105 St'
p1161
sbag0
(g16
g2
Ntp1162
Rp1163
(dp1164
g20
F40.585307
sg6
(lp1165
g1146
asg22
S'H13'
p1166
sg24
F-73.820558
sg13
S'Beach 98 St'
p1167
sbag0
(g16
g2
Ntp1168
Rp1169
(dp1170
g20
F40.588034
sg6
(lp1171
g1146
asg22
S'H12'
p1172
sg24
F-73.813641
sg13
S'Beach 90 St'
p1173
sbag1142
asbasg22
S'H04'
p1174
sg24
F-73.815925
sg13
S'Broad Channel'
p1175
sbag0
(g16
g2
Ntp1176
Rp1177
(dp1178
g20
F40.660476
sg6
(lp1179
g1102
asg22
S'H03'
p1180
sg24
F-73.830301
sg13
S'Howard Beach - JFK Airport'
p1181
sbag0
(g16
g2
Ntp1182
Rp1183
(dp1184
g20
F40.668234
sg6
(lp1185
g1102
asg22
S'H02'
p1186
sg24
F-73.834058
sg13
S'Aqueduct - N Conduit Av'
p1187
sbag0
(g16
g2
Ntp1188
Rp1189
(dp1190
g20
F40.680429
sg6
(lp1191
g1102
asg22
S'A61'
p1192
sg24
F-73.843853
sg13
S'Rockaway Blvd'
p1193
sbag0
(g16
g2
Ntp1194
Rp1195
(dp1196
g20
F40.679843
sg6
(lp1197
g1102
asg22
S'A60'
p1198
sg24
F-73.85147
sg13
S'88 St'
p1199
sbag0
(g16
g2
Ntp1200
Rp1201
(dp1202
g20
F40.679371
sg6
(lp1203
g1102
asg22
S'A59'
p1204
sg24
F-73.858992
sg13
S'80 St'
p1205
sbag0
(g16
g2
Ntp1206
Rp1207
(dp1208
g20
F40.677044
sg6
(lp1209
g1102
asg22
S'A57'
p1210
sg24
F-73.86505
sg13
S'Grant Av'
p1211
sbag0
(g16
g2
Ntp1212
Rp1213
(dp1214
g20
F40.675377
sg6
(lp1215
g1102
ag0
(g9
g2
Ntp1216
Rp1217
(dp1218
g13
S'C'
p1219
sg14
(lp1220
g1213
ag0
(g16
g2
Ntp1221
Rp1222
(dp1223
g20
F40.67413
sg6
(lp1224
g1217
asg22
S'A54'
p1225
sg24
F-73.88075
sg13
S'Shepherd Av'
p1226
sbag0
(g16
g2
Ntp1227
Rp1228
(dp1229
g20
F40.67271
sg6
(lp1230
g1217
asg22
S'A53'
p1231
sg24
F-73.890358
sg13
S'Van Siclen Av'
p1232
sbag0
(g16
g2
Ntp1233
Rp1234
(dp1235
g20
F40.674542
sg6
(lp1236
g1217
asg22
S'A52'
p1237
sg24
F-73.896548
sg13
S'Liberty Av'
p1238
sbag0
(g16
g2
Ntp1239
Rp1240
(dp1241
g20
F40.678334
sg6
(lp1242
g1102
ag1217
asg22
S'A51'
p1243
sg24
F-73.905316
sg13
S'Broadway Jct'
p1244
sbag0
(g16
g2
Ntp1245
Rp1246
(dp1247
g20
F40.67834
sg6
(lp1248
g1217
asg22
S'A50'
p1249
sg24
F-73.911946
sg13
S'Rockaway Av'
p1250
sbag0
(g16
g2
Ntp1251
Rp1252
(dp1253
g20
F40.678822
sg6
(lp1254
g1217
asg22
S'A49'
p1255
sg24
F-73.920786
sg13
S'Ralph Av'
p1256
sbag0
(g16
g2
Ntp1257
Rp1258
(dp1259
g20
F40.679364
sg6
(lp1260
g1102
ag1217
asg22
S'A48'
p1261
sg24
F-73.930729
sg13
S'Utica Av'
p1262
sbag0
(g16
g2
Ntp1263
Rp1264
(dp1265
g20
F40.679921
sg6
(lp1266
g1217
asg22
S'A47'
p1267
sg24
F-73.940858
sg13
S'Kingston - Throop Avs'
p1268
sbag0
(g16
g2
Ntp1269
Rp1270
(dp1271
g20
F40.680438
sg6
(lp1272
g1102
ag1217
asg22
S'A46'
p1273
sg24
F-73.950426
sg13
S'Nostrand Av'
p1274
sbag0
(g16
g2
Ntp1275
Rp1276
(dp1277
g20
F40.68138
sg6
(lp1278
g1217
asg22
S'A45'
p1279
sg24
F-73.956848
sg13
S'Franklin Av'
p1280
sbag0
(g16
g2
Ntp1281
Rp1282
(dp1283
g20
F40.683263
sg6
(lp1284
g1217
asg22
S'A44'
p1285
sg24
F-73.965838
sg13
S'Clinton - Washington Avs'
p1286
sbag0
(g16
g2
Ntp1287
Rp1288
(dp1289
g20
F40.686113
sg6
(lp1290
g1217
asg22
S'A43'
p1291
sg24
F-73.973946
sg13
S'Lafayette Av'
p1292
sbag0
(g16
g2
Ntp1293
Rp1294
(dp1295
g20
F40.688484
sg6
(lp1296
g1102
ag1217
ag0
(g9
g2
Ntp1297
Rp1298
(dp1299
g13
S'G'
p1300
sg14
(lp1301
g0
(g16
g2
Ntp1302
Rp1303
(dp1304
g20
F40.644041
sg6
(lp1305
g1298
ag0
(g9
g2
Ntp1306
Rp1307
(dp1308
g13
S'F'
p1309
sg14
(lp1310
g0
(g16
g2
Ntp1311
Rp1312
(dp1313
g20
F40.577422
sg6
(lp1314
g0
(g9
g2
Ntp1315
Rp1316
(dp1317
g13
S'D'
p1318
sg14
(lp1319
g1312
ag0
(g16
g2
Ntp1320
Rp1321
(dp1322
g20
F40.588841
sg6
(lp1323
g1316
asg22
S'B23'
p1324
sg24
F-73.983765
sg13
S'Bay 50 St'
p1325
sbag0
(g16
g2
Ntp1326
Rp1327
(dp1328
g20
F40.597704
sg6
(lp1329
g1316
asg22
S'B22'
p1330
sg24
F-73.986829
sg13
S'25 Av'
p1331
sbag0
(g16
g2
Ntp1332
Rp1333
(dp1334
g20
F40.601875
sg6
(lp1335
g1316
asg22
S'B21'
p1336
sg24
F-73.993728
sg13
S'Bay Pkwy'
p1337
sbag0
(g16
g2
Ntp1338
Rp1339
(dp1340
g20
F40.604556
sg6
(lp1341
g1316
asg22
S'B20'
p1342
sg24
F-73.998168
sg13
S'20 Av'
p1343
sbag0
(g16
g2
Ntp1344
Rp1345
(dp1346
g20
F40.607954
sg6
(lp1347
g1316
asg22
S'B19'
p1348
sg24
F-74.001736
sg13
S'18 Av'
p1349
sbag0
(g16
g2
Ntp1350
Rp1351
(dp1352
g20
F40.613501
sg6
(lp1353
g1316
asg22
S'B18'
p1354
sg24
F-74.00061
sg13
S'79 St'
p1355
sbag0
(g16
g2
Ntp1356
Rp1357
(dp1358
g20
F40.619589
sg6
(lp1359
g1316
asg22
S'B17'
p1360
sg24
F-73.998864
sg13
S'71 St'
p1361
sbag0
(g16
g2
Ntp1362
Rp1363
(dp1364
g20
F40.626472
sg6
(lp1365
g1316
asg22
S'B16'
p1366
sg24
F-73.996895
sg13
S'62 St'
p1367
sbag0
(g16
g2
Ntp1368
Rp1369
(dp1370
g20
F40.631435
sg6
(lp1371
g1316
asg22
S'B15'
p1372
sg24
F-73.995476
sg13
S'55 St'
p1373
sbag0
(g16
g2
Ntp1374
Rp1375
(dp1376
g20
F40.63626
sg6
(lp1377
g1316
asg22
S'B14'
p1378
sg24
F-73.994791
sg13
S'50 St'
p1379
sbag0
(g16
g2
Ntp1380
Rp1381
(dp1382
g20
F40.640914
sg6
(lp1383
g1316
asg22
S'B13'
p1384
sg24
F-73.994304
sg13
S'Fort Hamilton Pkwy'
p1385
sbag0
(g16
g2
Ntp1386
Rp1387
(dp1388
g20
F40.646292
sg6
(lp1389
g1316
asg22
S'B12'
p1390
sg24
F-73.994324
sg13
S'9 Av'
p1391
sbag0
(g16
g2
Ntp1392
Rp1393
(dp1394
g20
F40.655144
sg6
(lp1395
g1316
ag0
(g9
g2
Ntp1396
Rp1397
(dp1398
g13
S'N'
p1399
sg14
(lp1400
g0
(g16
g2
Ntp1401
Rp1402
(dp1403
g20
F40.775036
sg6
(lp1404
g1397
ag0
(g9
g2
Ntp1405
Rp1406
(dp1407
g13
S'Q'
p1408
sg14
(lp1409
g1402
ag0
(g16
g2
Ntp1410
Rp1411
(dp1412
g20
F40.770258
sg6
(lp1413
g1397
ag1406
asg22
S'R03'
p1414
sg24
F-73.917843
sg13
S'Astoria Blvd'
p1415
sbag0
(g16
g2
Ntp1416
Rp1417
(dp1418
g20
F40.766779
sg6
(lp1419
g1397
ag1406
asg22
S'R04'
p1420
sg24
F-73.921479
sg13
S'30 Av'
p1421
sbag0
(g16
g2
Ntp1422
Rp1423
(dp1424
g20
F40.76182
sg6
(lp1425
g1397
ag1406
asg22
S'R05'
p1426
sg24
F-73.925508
sg13
S'Broadway'
p1427
sbag0
(g16
g2
Ntp1428
Rp1429
(dp1430
g20
F40.756804
sg6
(lp1431
g1397
ag1406
asg22
S'R06'
p1432
sg24
F-73.929575
sg13
S'36 Av'
p1433
sbag0
(g16
g2
Ntp1434
Rp1435
(dp1436
g20
F40.752882
sg6
(lp1437
g1397
ag1406
asg22
S'R08'
p1438
sg24
F-73.932755
sg13
S'39 Av'
p1439
sbag0
(g16
g2
Ntp1440
Rp1441
(dp1442
g20
F40.750582
sg6
(lp1443
g1397
ag1406
asg22
S'R09'
p1444
sg24
F-73.940202
sg13
S'Queensboro Plaza'
p1445
sbag0
(g16
g2
Ntp1446
Rp1447
(dp1448
g20
F40.76266
sg6
(lp1449
g1397
ag1406
ag0
(g9
g2
Ntp1450
Rp1451
(dp1452
g13
S'R'
p1453
sg14
(lp1454
g0
(g16
g2
Ntp1455
Rp1456
(dp1457
g20
F40.721691
sg6
(lp1458
g0
(g9
g2
Ntp1459
Rp1460
(dp1461
g13
S'E'
p1462
sg14
(lp1463
g0
(g16
g2
Ntp1464
Rp1465
(dp1466
g20
F40.712582
sg6
(lp1467
g1460
asg22
S'E01'
p1468
sg24
F-74.009781
sg13
S'World Trade Center'
p1469
sbag0
(g16
g2
Ntp1470
Rp1471
(dp1472
g20
F40.720824
sg6
(lp1473
g1102
ag1217
ag1460
asg22
S'A34'
p1474
sg24
F-74.005229
sg13
S'Canal St'
p1475
sbag0
(g16
g2
Ntp1476
Rp1477
(dp1478
g20
F40.726227
sg6
(lp1479
g1217
ag1460
asg22
S'A33'
p1480
sg24
F-74.003739
sg13
S'Spring St'
p1481
sbag0
(g16
g2
Ntp1482
Rp1483
(dp1484
g20
F40.732338
sg6
(lp1485
g1102
ag1217
ag1460
asg22
S'A32'
p1486
sg24
F-74.000495
sg13
S'W 4 St'
p1487
sbag0
(g16
g2
Ntp1488
Rp1489
(dp1490
g20
F40.740893
sg6
(lp1491
g1102
ag1217
ag1460
asg22
S'A31'
p1492
sg24
F-74.00169
sg13
S'14 St'
p1493
sbag0
(g16
g2
Ntp1494
Rp1495
(dp1496
g20
F40.745906
sg6
(lp1497
g1217
ag1460
asg22
S'A30'
p1498
sg24
F-73.998041
sg13
S'23 St'
p1499
sbag0
(g16
g2
Ntp1500
Rp1501
(dp1502
g20
F40.752287
sg6
(lp1503
g1102
ag1217
ag1460
asg22
S'A28'
p1504
sg24
F-73.993391
sg13
S'34 St - Penn Station'
p1505
sbag0
(g16
g2
Ntp1506
Rp1507
(dp1508
g20
F40.757308
sg6
(lp1509
g1102
ag1217
ag1460
asg22
S'A27'
p1510
sg24
F-73.989735
sg13
S'42 St - Port Authority Bus Terminal'
p1511
sbag0
(g16
g2
Ntp1512
Rp1513
(dp1514
g20
F40.762456
sg6
(lp1515
g1217
ag1460
asg22
S'A25'
p1516
sg24
F-73.985984
sg13
S'50 St'
p1517
sbag0
(g16
g2
Ntp1518
Rp1519
(dp1520
g20
F40.762862
sg6
(lp1521
g0
(g9
g2
Ntp1522
Rp1523
(dp1524
g13
S'B'
p1525
sg14
(lp1526
g0
(g16
g2
Ntp1527
Rp1528
(dp1529
g20
F40.824783
sg6
(lp1530
g1523
ag1316
asg22
S'D13'
p1531
sg24
F-73.944216
sg13
S'145 St'
p1532
sbag0
(g16
g2
Ntp1533
Rp1534
(dp1535
g20
F40.817894
sg6
(lp1536
g1217
ag1523
asg22
S'A14'
p1537
sg24
F-73.947649
sg13
S'135 St'
p1538
sbag0
(g16
g2
Ntp1539
Rp1540
(dp1541
g20
F40.811109
sg6
(lp1542
g1102
ag1217
ag1523
ag1316
asg22
S'A15'
p1543
sg24
F-73.952343
sg13
S'125 St'
p1544
sbag0
(g16
g2
Ntp1545
Rp1546
(dp1547
g20
F40.805085
sg6
(lp1548
g1217
ag1523
asg22
S'A16'
p1549
sg24
F-73.954882
sg13
S'116 St'
p1550
sbag0
(g16
g2
Ntp1551
Rp1552
(dp1553
g20
F40.800603
sg6
(lp1554
g1217
ag1523
asg22
S'A17'
p1555
sg24
F-73.958161
sg13
S'Cathedral Pkwy (110 St)'
p1556
sbag0
(g16
g2
Ntp1557
Rp1558
(dp1559
g20
F40.796092
sg6
(lp1560
g1217
ag1523
asg22
S'A18'
p1561
sg24
F-73.961454
sg13
S'103 St'
p1562
sbag0
(g16
g2
Ntp1563
Rp1564
(dp1565
g20
F40.791642
sg6
(lp1566
g1217
ag1523
asg22
S'A19'
p1567
sg24
F-73.964696
sg13
S'96 St'
p1568
sbag0
(g16
g2
Ntp1569
Rp1570
(dp1571
g20
F40.785868
sg6
(lp1572
g1217
ag1523
asg22
S'A20'
p1573
sg24
F-73.968916
sg13
S'86 St'
p1574
sbag0
(g16
g2
Ntp1575
Rp1576
(dp1577
g20
F40.781433
sg6
(lp1578
g1217
ag1523
asg22
S'A21'
p1579
sg24
F-73.972143
sg13
S'81 St - Museum of Natural History'
p1580
sbag0
(g16
g2
Ntp1581
Rp1582
(dp1583
g20
F40.775594
sg6
(lp1584
g1217
ag1523
asg22
S'A22'
p1585
sg24
F-73.97641
sg13
S'72 St'
p1586
sbag0
(g16
g2
Ntp1587
Rp1588
(dp1589
g20
F40.768296
sg6
(lp1590
g1102
ag1217
ag1523
ag1316
asg22
S'A24'
p1591
sg24
F-73.981736
sg13
S'59 St - Columbus Circle'
p1592
sbag1519
ag0
(g16
g2
Ntp1593
Rp1594
(dp1595
g20
F40.758663
sg6
(lp1596
g1523
ag1316
ag1307
ag0
(g9
g2
Ntp1597
Rp1598
(dp1599
g13
S'M'
p1600
sg14
(lp1601
g0
(g16
g2
Ntp1602
Rp1603
(dp1604
g20
F40.711396
sg6
(lp1605
g1598
asg22
S'M01'
p1606
sg24
F-73.889601
sg13
S'Middle Village - Metropolitan Av'
p1607
sbag0
(g16
g2
Ntp1608
Rp1609
(dp1610
g20
F40.706186
sg6
(lp1611
g1598
asg22
S'M04'
p1612
sg24
F-73.895877
sg13
S'Fresh Pond Rd'
p1613
sbag0
(g16
g2
Ntp1614
Rp1615
(dp1616
g20
F40.704423
sg6
(lp1617
g1598
asg22
S'M05'
p1618
sg24
F-73.903077
sg13
S'Forest Av'
p1619
sbag0
(g16
g2
Ntp1620
Rp1621
(dp1622
g20
F40.702762
sg6
(lp1623
g1598
asg22
S'M06'
p1624
sg24
F-73.90774
sg13
S'Seneca Av'
p1625
sbag0
(g16
g2
Ntp1626
Rp1627
(dp1628
g20
F40.69943
sg6
(lp1629
g1598
asg22
S'M08'
p1630
sg24
F-73.912385
sg13
S'Myrtle - Wyckoff Avs'
p1631
sbag0
(g16
g2
Ntp1632
Rp1633
(dp1634
g20
F40.698664
sg6
(lp1635
g1598
asg22
S'M09'
p1636
sg24
F-73.919711
sg13
S'Knickerbocker Av'
p1637
sbag0
(g16
g2
Ntp1638
Rp1639
(dp1640
g20
F40.697857
sg6
(lp1641
g1598
asg22
S'M10'
p1642
sg24
F-73.927397
sg13
S'Central Av'
p1643
sbag0
(g16
g2
Ntp1644
Rp1645
(dp1646
g20
F40.697207
sg6
(lp1647
g0
(g9
g2
Ntp1648
Rp1649
(dp1650
g13
S'J'
p1651
sg14
(lp1652
g0
(g16
g2
Ntp1653
Rp1654
(dp1655
g20
F40.706476
sg6
(lp1656
g1649
asg22
S'M23'
p1657
sg24
F-74.011056
sg13
S'Broad St'
p1658
sbag0
(g16
g2
Ntp1659
Rp1660
(dp1661
g20
F40.710374
sg6
(lp1662
g1649
asg22
S'M22'
p1663
sg24
F-74.007582
sg13
S'Fulton St'
p1664
sbag0
(g16
g2
Ntp1665
Rp1666
(dp1667
g20
F40.713243
sg6
(lp1668
g1649
asg22
S'M21'
p1669
sg24
F-74.003401
sg13
S'Chambers St'
p1670
sbag0
(g16
g2
Ntp1671
Rp1672
(dp1673
g20
F40.718092
sg6
(lp1674
g1649
asg22
S'M20'
p1675
sg24
F-73.999892
sg13
S'Canal St'
p1676
sbag0
(g16
g2
Ntp1677
Rp1678
(dp1679
g20
F40.72028
sg6
(lp1680
g1649
asg22
S'M19'
p1681
sg24
F-73.993915
sg13
S'Bowery'
p1682
sbag0
(g16
g2
Ntp1683
Rp1684
(dp1685
g20
F40.718315
sg6
(lp1686
g1649
ag1598
asg22
S'M18'
p1687
sg24
F-73.987437
sg13
S'Essex St'
p1688
sbag0
(g16
g2
Ntp1689
Rp1690
(dp1691
g20
F40.708359
sg6
(lp1692
g1649
ag1598
asg22
S'M16'
p1693
sg24
F-73.957757
sg13
S'Marcy Av'
p1694
sbag0
(g16
g2
Ntp1695
Rp1696
(dp1697
g20
F40.70687
sg6
(lp1698
g1649
ag1598
asg22
S'M14'
p1699
sg24
F-73.953431
sg13
S'Hewes St'
p1700
sbag0
(g16
g2
Ntp1701
Rp1702
(dp1703
g20
F40.703869
sg6
(lp1704
g1649
ag1598
asg22
S'M13'
p1705
sg24
F-73.947408
sg13
S'Lorimer St'
p1706
sbag0
(g16
g2
Ntp1707
Rp1708
(dp1709
g20
F40.70026
sg6
(lp1710
g1649
ag1598
asg22
S'M12'
p1711
sg24
F-73.941126
sg13
S'Flushing Av'
p1712
sbag1645
ag0
(g16
g2
Ntp1713
Rp1714
(dp1715
g20
F40.693342
sg6
(lp1716
g1649
asg22
S'J31'
p1717
sg24
F-73.928814
sg13
S'Kosciusko St'
p1718
sbag0
(g16
g2
Ntp1719
Rp1720
(dp1721
g20
F40.68963
sg6
(lp1722
g1649
asg22
S'J30'
p1723
sg24
F-73.92227
sg13
S'Gates Av'
p1724
sbag0
(g16
g2
Ntp1725
Rp1726
(dp1727
g20
F40.68637
sg6
(lp1728
g1649
asg22
S'J29'
p1729
sg24
F-73.916559
sg13
S'Halsey St'
p1730
sbag0
(g16
g2
Ntp1731
Rp1732
(dp1733
g20
F40.682893
sg6
(lp1734
g1649
asg22
S'J28'
p1735
sg24
F-73.910456
sg13
S'Chauncey St'
p1736
sbag0
(g16
g2
Ntp1737
Rp1738
(dp1739
g20
F40.679498
sg6
(lp1740
g1649
asg22
S'J27'
p1741
sg24
F-73.904512
sg13
S'Broadway Jct'
p1742
sbag0
(g16
g2
Ntp1743
Rp1744
(dp1745
g20
F40.676992
sg6
(lp1746
g1649
asg22
S'J24'
p1747
sg24
F-73.898654
sg13
S'Alabama Av'
p1748
sbag0
(g16
g2
Ntp1749
Rp1750
(dp1751
g20
F40.678024
sg6
(lp1752
g1649
asg22
S'J23'
p1753
sg24
F-73.891688
sg13
S'Van Siclen Av'
p1754
sbag0
(g16
g2
Ntp1755
Rp1756
(dp1757
g20
F40.679947
sg6
(lp1758
g1649
asg22
S'J22'
p1759
sg24
F-73.884639
sg13
S'Cleveland St'
p1760
sbag0
(g16
g2
Ntp1761
Rp1762
(dp1763
g20
F40.68141
sg6
(lp1764
g1649
asg22
S'J21'
p1765
sg24
F-73.880039
sg13
S'Norwood Av'
p1766
sbag0
(g16
g2
Ntp1767
Rp1768
(dp1769
g20
F40.683194
sg6
(lp1770
g1649
asg22
S'J20'
p1771
sg24
F-73.873785
sg13
S'Crescent St'
p1772
sbag0
(g16
g2
Ntp1773
Rp1774
(dp1775
g20
F40.689941
sg6
(lp1776
g1649
asg22
S'J19'
p1777
sg24
F-73.87255
sg13
S'Cypress Hills'
p1778
sbag0
(g16
g2
Ntp1779
Rp1780
(dp1781
g20
F40.691324
sg6
(lp1782
g1649
asg22
S'J17'
p1783
sg24
F-73.867139
sg13
S'75 St'
p1784
sbag0
(g16
g2
Ntp1785
Rp1786
(dp1787
g20
F40.692435
sg6
(lp1788
g1649
asg22
S'J16'
p1789
sg24
F-73.86001
sg13
S'85 St - Forest Pkwy'
p1790
sbag0
(g16
g2
Ntp1791
Rp1792
(dp1793
g20
F40.693879
sg6
(lp1794
g1649
asg22
S'J15'
p1795
sg24
F-73.851576
sg13
S'Woodhaven Blvd'
p1796
sbag0
(g16
g2
Ntp1797
Rp1798
(dp1799
g20
F40.695178
sg6
(lp1800
g1649
asg22
S'J14'
p1801
sg24
F-73.84433
sg13
S'104 St'
p1802
sbag0
(g16
g2
Ntp1803
Rp1804
(dp1805
g20
F40.697418
sg6
(lp1806
g1649
asg22
S'J13'
p1807
sg24
F-73.836345
sg13
S'111 St'
p1808
sbag0
(g16
g2
Ntp1809
Rp1810
(dp1811
g20
F40.700492
sg6
(lp1812
g1649
asg22
S'J12'
p1813
sg24
F-73.828294
sg13
S'121 St'
p1814
sbag0
(g16
g2
Ntp1815
Rp1816
(dp1817
g20
F40.700486
sg6
(lp1818
g1460
ag1649
asg22
S'G06'
p1819
sg24
F-73.807969
sg13
S'Sutphin Blvd - Archer Av - JFK Airport'
p1820
sbag0
(g16
g2
Ntp1821
Rp1822
(dp1823
g20
F40.702147
sg6
(lp1824
g1460
ag1649
asg22
S'G05'
p1825
sg24
F-73.801109
sg13
S'Jamaica Center - Parsons/Archer'
p1826
sbasbag1598
asg22
S'M11'
p1827
sg24
F-73.935657
sg13
S'Myrtle Av'
p1828
sbag1708
ag1702
ag1696
ag1690
ag1684
ag0
(g16
g2
Ntp1829
Rp1830
(dp1831
g20
F40.725297
sg6
(lp1832
g1523
ag1316
ag1307
ag1598
asg22
S'D21'
p1833
sg24
F-73.996204
sg13
S'Broadway - Lafayette St'
p1834
sbag0
(g16
g2
Ntp1835
Rp1836
(dp1837
g20
F40.732338
sg6
(lp1838
g1523
ag1316
ag1307
ag1598
asg22
S'D20'
p1839
sg24
F-74.000495
sg13
S'W 4 St'
p1840
sbag0
(g16
g2
Ntp1841
Rp1842
(dp1843
g20
F40.738228
sg6
(lp1844
g1307
ag1598
asg22
S'D19'
p1845
sg24
F-73.996209
sg13
S'14 St'
p1846
sbag0
(g16
g2
Ntp1847
Rp1848
(dp1849
g20
F40.742878
sg6
(lp1850
g1307
ag1598
asg22
S'D18'
p1851
sg24
F-73.992821
sg13
S'23 St'
p1852
sbag0
(g16
g2
Ntp1853
Rp1854
(dp1855
g20
F40.749719
sg6
(lp1856
g1523
ag1316
ag1307
ag1598
asg22
S'D17'
p1857
sg24
F-73.987823
sg13
S'34 St - Herald Sq'
p1858
sbag0
(g16
g2
Ntp1859
Rp1860
(dp1861
g20
F40.754222
sg6
(lp1862
g1523
ag1316
ag1307
ag1598
asg22
S'D16'
p1863
sg24
F-73.984569
sg13
S'42 St - Bryant Pk'
p1864
sbag1594
ag0
(g16
g2
Ntp1865
Rp1866
(dp1867
g20
F40.760167
sg6
(lp1868
g1460
ag1598
asg22
S'F12'
p1869
sg24
F-73.975224
sg13
S'5 Av/53 St'
p1870
sbag0
(g16
g2
Ntp1871
Rp1872
(dp1873
g20
F40.757552
sg6
(lp1874
g1460
ag1598
asg22
S'F11'
p1875
sg24
F-73.969055
sg13
S'Lexington Av/53 St'
p1876
sbag0
(g16
g2
Ntp1877
Rp1878
(dp1879
g20
F40.747846
sg6
(lp1880
g1460
ag1598
asg22
S'F09'
p1881
sg24
F-73.946
sg13
S'23 St - Ely Av'
p1882
sbag0
(g16
g2
Ntp1883
Rp1884
(dp1885
g20
F40.748973
sg6
(lp1886
g1460
ag1598
ag1451
asg22
S'G21'
p1887
sg24
F-73.937243
sg13
S'Queens Plaza'
p1888
sbag0
(g16
g2
Ntp1889
Rp1890
(dp1891
g20
F40.752039
sg6
(lp1892
g1598
ag1451
asg22
S'G20'
p1893
sg24
F-73.928781
sg13
S'36 St'
p1894
sbag0
(g16
g2
Ntp1895
Rp1896
(dp1897
g20
F40.756879
sg6
(lp1898
g1598
ag1451
asg22
S'G19'
p1899
sg24
F-73.92074
sg13
S'Steinway St'
p1900
sbag0
(g16
g2
Ntp1901
Rp1902
(dp1903
g20
F40.756312
sg6
(lp1904
g1598
ag1451
asg22
S'G18'
p1905
sg24
F-73.913333
sg13
S'46 St'
p1906
sbag0
(g16
g2
Ntp1907
Rp1908
(dp1909
g20
F40.752885
sg6
(lp1910
g1598
ag1451
asg22
S'G16'
p1911
sg24
F-73.906006
sg13
S'Northern Blvd'
p1912
sbag0
(g16
g2
Ntp1913
Rp1914
(dp1915
g20
F40.749669
sg6
(lp1916
g1598
ag1451
asg22
S'G15'
p1917
sg24
F-73.898453
sg13
S'65 St'
p1918
sbag0
(g16
g2
Ntp1919
Rp1920
(dp1921
g20
F40.746644
sg6
(lp1922
g1460
ag1307
ag1598
ag1451
asg22
S'G14'
p1923
sg24
F-73.891338
sg13
S'Jackson Hts - Roosevelt Av'
p1924
sbag0
(g16
g2
Ntp1925
Rp1926
(dp1927
g20
F40.742454
sg6
(lp1928
g1598
ag1451
asg22
S'G13'
p1929
sg24
F-73.882017
sg13
S'Elmhurst Av'
p1930
sbag0
(g16
g2
Ntp1931
Rp1932
(dp1933
g20
F40.737015
sg6
(lp1934
g1598
ag1451
asg22
S'G12'
p1935
sg24
F-73.877223
sg13
S'Grand Av - Newtown'
p1936
sbag0
(g16
g2
Ntp1937
Rp1938
(dp1939
g20
F40.733106
sg6
(lp1940
g1598
ag1451
asg22
S'G11'
p1941
sg24
F-73.869229
sg13
S'Woodhaven Blvd'
p1942
sbag0
(g16
g2
Ntp1943
Rp1944
(dp1945
g20
F40.729846
sg6
(lp1946
g1598
ag1451
asg22
S'G10'
p1947
sg24
F-73.861604
sg13
S'63 Dr - Rego Park'
p1948
sbag0
(g16
g2
Ntp1949
Rp1950
(dp1951
g20
F40.726523
sg6
(lp1952
g1598
ag1451
asg22
S'G09'
p1953
sg24
F-73.852719
sg13
S'67 Av'
p1954
sbag1456
asbasg22
S'D15'
p1955
sg24
F-73.981329
sg13
S'47 - 50 Sts - Rockefeller Ctr'
p1956
sbag1860
ag1854
ag1836
ag1830
ag0
(g16
g2
Ntp1957
Rp1958
(dp1959
g20
F40.718267
sg6
(lp1960
g1523
ag1316
asg22
S'D22'
p1961
sg24
F-73.993753
sg13
S'Grand St'
p1962
sbag0
(g16
g2
Ntp1963
Rp1964
(dp1965
g20
F40.690635
sg6
(lp1966
g1523
ag1406
ag1451
asg22
S'R30'
p1967
sg24
F-73.981824
sg13
S'DeKalb Av'
p1968
sbag0
(g16
g2
Ntp1969
Rp1970
(dp1971
g20
F40.68446
sg6
(lp1972
g1523
ag1406
asg22
S'D24'
p1973
sg24
F-73.97689
sg13
S'Atlantic Av'
p1974
sbag0
(g16
g2
Ntp1975
Rp1976
(dp1977
g20
F40.67705
sg6
(lp1978
g1523
ag1406
asg22
S'D25'
p1979
sg24
F-73.972367
sg13
S'7 Av'
p1980
sbag0
(g16
g2
Ntp1981
Rp1982
(dp1983
g20
F40.661614
sg6
(lp1984
g1523
ag1406
asg22
S'D26'
p1985
sg24
F-73.962246
sg13
S'Prospect Park'
p1986
sbag0
(g16
g2
Ntp1987
Rp1988
(dp1989
g20
F40.650527
sg6
(lp1990
g1523
ag1406
asg22
S'D28'
p1991
sg24
F-73.962982
sg13
S'Church Av'
p1992
sbag0
(g16
g2
Ntp1993
Rp1994
(dp1995
g20
F40.635082
sg6
(lp1996
g1523
ag1406
asg22
S'D31'
p1997
sg24
F-73.962793
sg13
S'Newkirk Av'
p1998
sbag0
(g16
g2
Ntp1999
Rp2000
(dp2001
g20
F40.60867
sg6
(lp2002
g1523
ag1406
asg22
S'D35'
p2003
sg24
F-73.957734
sg13
S'Kings Hwy'
p2004
sbag0
(g16
g2
Ntp2005
Rp2006
(dp2007
g20
F40.586896
sg6
(lp2008
g1523
ag1406
asg22
S'D39'
p2009
sg24
F-73.954155
sg13
S'Sheepshead Bay'
p2010
sbag0
(g16
g2
Ntp2011
Rp2012
(dp2013
g20
F40.577621
sg6
(lp2014
g1523
ag1406
asg22
S'D40'
p2015
sg24
F-73.961376
sg13
S'Brighton Beach'
p2016
sbasbag1460
ag1316
asg22
S'D14'
p2017
sg24
F-73.981637
sg13
S'7 Av'
p2018
sbag1866
ag1872
ag1878
ag1884
ag1920
ag1456
ag0
(g16
g2
Ntp2019
Rp2020
(dp2021
g20
F40.714441
sg6
(lp2022
g1460
ag1307
asg22
S'F06'
p2023
sg24
F-73.831008
sg13
S'Kew Gardens - Union Tpke'
p2024
sbag0
(g16
g2
Ntp2025
Rp2026
(dp2027
g20
F40.702566
sg6
(lp2028
g1460
asg22
S'G07'
p2029
sg24
F-73.816859
sg13
S'Jamaica - Van Wyck'
p2030
sbag1816
ag1822
asbag1307
ag1598
ag1451
asg22
S'G08'
p2031
sg24
F-73.844521
sg13
S'Forest Hills - 71 Av'
p2032
sbag1950
ag1944
ag1938
ag1932
ag1926
ag1920
ag1914
ag1908
ag1902
ag1896
ag1890
ag1884
ag1447
ag0
(g16
g2
Ntp2033
Rp2034
(dp2035
g20
F40.764811
sg6
(lp2036
g1397
ag1406
ag1451
asg22
S'R13'
p2037
sg24
F-73.973347
sg13
S'5 Av/59 St'
p2038
sbag0
(g16
g2
Ntp2039
Rp2040
(dp2041
g20
F40.764664
sg6
(lp2042
g1397
ag1406
ag1451
asg22
S'R14'
p2043
sg24
F-73.980658
sg13
S'57 St - 7 Av'
p2044
sbag0
(g16
g2
Ntp2045
Rp2046
(dp2047
g20
F40.759901
sg6
(lp2048
g1397
ag1406
ag1451
asg22
S'R15'
p2049
sg24
F-73.984139
sg13
S'49 St'
p2050
sbag0
(g16
g2
Ntp2051
Rp2052
(dp2053
g20
F40.754672
sg6
(lp2054
g1397
ag1406
ag1451
asg22
S'R16'
p2055
sg24
F-73.986754
sg13
S'Times Sq - 42 St'
p2056
sbag0
(g16
g2
Ntp2057
Rp2058
(dp2059
g20
F40.749567
sg6
(lp2060
g1397
ag1406
ag1451
asg22
S'R17'
p2061
sg24
F-73.98795
sg13
S'34 St - Herald Sq'
p2062
sbag0
(g16
g2
Ntp2063
Rp2064
(dp2065
g20
F40.745494
sg6
(lp2066
g1397
ag1451
asg22
S'R18'
p2067
sg24
F-73.988691
sg13
S'28 St'
p2068
sbag0
(g16
g2
Ntp2069
Rp2070
(dp2071
g20
F40.741303
sg6
(lp2072
g1397
ag1451
asg22
S'R19'
p2073
sg24
F-73.989344
sg13
S'23 St'
p2074
sbag0
(g16
g2
Ntp2075
Rp2076
(dp2077
g20
F40.735736
sg6
(lp2078
g1397
ag1406
ag1451
asg22
S'R20'
p2079
sg24
F-73.990568
sg13
S'14 St - Union Sq'
p2080
sbag0
(g16
g2
Ntp2081
Rp2082
(dp2083
g20
F40.730328
sg6
(lp2084
g1397
ag1451
asg22
S'R21'
p2085
sg24
F-73.992629
sg13
S'8 St - NYU'
p2086
sbag0
(g16
g2
Ntp2087
Rp2088
(dp2089
g20
F40.724329
sg6
(lp2090
g1397
ag1451
asg22
S'R22'
p2091
sg24
F-73.997702
sg13
S'Prince St'
p2092
sbag0
(g16
g2
Ntp2093
Rp2094
(dp2095
g20
F40.719527
sg6
(lp2096
g1451
asg22
S'R23'
p2097
sg24
F-74.001775
sg13
S'Canal St'
p2098
sbag0
(g16
g2
Ntp2099
Rp2100
(dp2101
g20
F40.713282
sg6
(lp2102
g1451
asg22
S'R24'
p2103
sg24
F-74.006978
sg13
S'City Hall'
p2104
sbag0
(g16
g2
Ntp2105
Rp2106
(dp2107
g20
F40.710668
sg6
(lp2108
g1451
asg22
S'R25'
p2109
sg24
F-74.011029
sg13
S'Cortlandt St'
p2110
sbag0
(g16
g2
Ntp2111
Rp2112
(dp2113
g20
F40.70722
sg6
(lp2114
g1451
asg22
S'R26'
p2115
sg24
F-74.013342
sg13
S'Rector St'
p2116
sbag0
(g16
g2
Ntp2117
Rp2118
(dp2119
g20
F40.703087
sg6
(lp2120
g1451
asg22
S'R27'
p2121
sg24
F-74.012994
sg13
S'Whitehall St'
p2122
sbag0
(g16
g2
Ntp2123
Rp2124
(dp2125
g20
F40.6941
sg6
(lp2126
g1451
asg22
S'R28'
p2127
sg24
F-73.991777
sg13
S'Court St'
p2128
sbag0
(g16
g2
Ntp2129
Rp2130
(dp2131
g20
F40.69218
sg6
(lp2132
g1451
asg22
S'R29'
p2133
sg24
F-73.985942
sg13
S'Jay St - MetroTech'
p2134
sbag1964
ag0
(g16
g2
Ntp2135
Rp2136
(dp2137
g20
F40.683666
sg6
(lp2138
g1316
ag1397
ag1451
asg22
S'R31'
p2139
sg24
F-73.97881
sg13
S'Atlantic Av - Pacific St'
p2140
sbag0
(g16
g2
Ntp2141
Rp2142
(dp2143
g20
F40.677316
sg6
(lp2144
g1451
asg22
S'R32'
p2145
sg24
F-73.98311
sg13
S'Union St'
p2146
sbag0
(g16
g2
Ntp2147
Rp2148
(dp2149
g20
F40.670847
sg6
(lp2150
g1451
asg22
S'R33'
p2151
sg24
F-73.988302
sg13
S'9 St'
p2152
sbag0
(g16
g2
Ntp2153
Rp2154
(dp2155
g20
F40.665414
sg6
(lp2156
g1451
asg22
S'R34'
p2157
sg24
F-73.992872
sg13
S'Prospect Av'
p2158
sbag0
(g16
g2
Ntp2159
Rp2160
(dp2161
g20
F40.660397
sg6
(lp2162
g1451
asg22
S'R35'
p2163
sg24
F-73.998091
sg13
S'25 St'
p2164
sbag1393
ag0
(g16
g2
Ntp2165
Rp2166
(dp2167
g20
F40.648939
sg6
(lp2168
g1451
asg22
S'R39'
p2169
sg24
F-74.010006
sg13
S'45 St'
p2170
sbag0
(g16
g2
Ntp2171
Rp2172
(dp2173
g20
F40.645069
sg6
(lp2174
g1451
asg22
S'R40'
p2175
sg24
F-74.014034
sg13
S'53 St'
p2176
sbag0
(g16
g2
Ntp2177
Rp2178
(dp2179
g20
F40.641362
sg6
(lp2180
g1397
ag1451
asg22
S'R41'
p2181
sg24
F-74.017881
sg13
S'59 St'
p2182
sbag0
(g16
g2
Ntp2183
Rp2184
(dp2185
g20
F40.634967
sg6
(lp2186
g1451
asg22
S'R42'
p2187
sg24
F-74.023377
sg13
S'Bay Ridge Av'
p2188
sbag0
(g16
g2
Ntp2189
Rp2190
(dp2191
g20
F40.629742
sg6
(lp2192
g1451
asg22
S'R43'
p2193
sg24
F-74.02551
sg13
S'77 St'
p2194
sbag0
(g16
g2
Ntp2195
Rp2196
(dp2197
g20
F40.622687
sg6
(lp2198
g1451
asg22
S'R44'
p2199
sg24
F-74.028398
sg13
S'86 St'
p2200
sbag0
(g16
g2
Ntp2201
Rp2202
(dp2203
g20
F40.616622
sg6
(lp2204
g1451
asg22
S'R45'
p2205
sg24
F-74.030876
sg13
S'Bay Ridge - 95 St'
p2206
sbasbasg22
S'R11'
p2207
sg24
F-73.967258
sg13
S'Lexington Av/59 St'
p2208
sbag2034
ag2040
ag2046
ag2052
ag2058
ag2076
ag0
(g16
g2
Ntp2209
Rp2210
(dp2211
g20
F40.718383
sg6
(lp2212
g1397
ag1406
asg22
S'Q01'
p2213
sg24
F-74.00046
sg13
S'Canal St'
p2214
sbag1964
ag1970
ag1976
ag1982
ag0
(g16
g2
Ntp2215
Rp2216
(dp2217
g20
F40.655292
sg6
(lp2218
g1406
asg22
S'D27'
p2219
sg24
F-73.961495
sg13
S'Parkside Av'
p2220
sbag1988
ag0
(g16
g2
Ntp2221
Rp2222
(dp2223
g20
F40.644031
sg6
(lp2224
g1406
asg22
S'D29'
p2225
sg24
F-73.964492
sg13
S'Beverly Rd'
p2226
sbag0
(g16
g2
Ntp2227
Rp2228
(dp2229
g20
F40.640927
sg6
(lp2230
g1406
asg22
S'D30'
p2231
sg24
F-73.963891
sg13
S'Cortelyou Rd'
p2232
sbag1994
ag0
(g16
g2
Ntp2233
Rp2234
(dp2235
g20
F40.62927
sg6
(lp2236
g1406
asg22
S'D32'
p2237
sg24
F-73.961639
sg13
S'Avenue H'
p2238
sbag0
(g16
g2
Ntp2239
Rp2240
(dp2241
g20
F40.625039
sg6
(lp2242
g1406
asg22
S'D33'
p2243
sg24
F-73.960803
sg13
S'Avenue J'
p2244
sbag0
(g16
g2
Ntp2245
Rp2246
(dp2247
g20
F40.617618
sg6
(lp2248
g1406
asg22
S'D34'
p2249
sg24
F-73.959399
sg13
S'Avenue M'
p2250
sbag2000
ag0
(g16
g2
Ntp2251
Rp2252
(dp2253
g20
F40.5993
sg6
(lp2254
g1406
asg22
S'D37'
p2255
sg24
F-73.955929
sg13
S'Avenue U'
p2256
sbag0
(g16
g2
Ntp2257
Rp2258
(dp2259
g20
F40.595246
sg6
(lp2260
g1406
asg22
S'D38'
p2261
sg24
F-73.955161
sg13
S'Neck Rd'
p2262
sbag2006
ag2012
ag0
(g16
g2
Ntp2263
Rp2264
(dp2265
g20
F40.576312
sg6
(lp2266
g1406
asg22
S'D41'
p2267
sg24
F-73.968501
sg13
S'Ocean Pkwy'
p2268
sbag0
(g16
g2
Ntp2269
Rp2270
(dp2271
g20
F40.576127
sg6
(lp2272
g1307
ag1406
asg22
S'D42'
p2273
sg24
F-73.975939
sg13
S'W 8 St - NY Aquarium'
p2274
sbag1312
asbasg22
S'R01'
p2275
sg24
F-73.912034
sg13
S'Astoria - Ditmars Blvd'
p2276
sbag1411
ag1417
ag1423
ag1429
ag1435
ag1441
ag1447
ag2034
ag2040
ag2046
ag2052
ag2058
ag2064
ag2070
ag2076
ag2082
ag2088
ag2210
ag2136
ag1393
ag2178
ag0
(g16
g2
Ntp2277
Rp2278
(dp2279
g20
F40.635064
sg6
(lp2280
g1397
asg22
S'N02'
p2281
sg24
F-74.011719
sg13
S'8 Av'
p2282
sbag0
(g16
g2
Ntp2283
Rp2284
(dp2285
g20
F40.631386
sg6
(lp2286
g1397
asg22
S'N03'
p2287
sg24
F-74.005351
sg13
S'Fort Hamilton Pkwy'
p2288
sbag0
(g16
g2
Ntp2289
Rp2290
(dp2291
g20
F40.624842
sg6
(lp2292
g1397
asg22
S'N04'
p2293
sg24
F-73.996353
sg13
S'New Utrecht Av'
p2294
sbag0
(g16
g2
Ntp2295
Rp2296
(dp2297
g20
F40.620671
sg6
(lp2298
g1397
asg22
S'N05'
p2299
sg24
F-73.990414
sg13
S'18 Av'
p2300
sbag0
(g16
g2
Ntp2301
Rp2302
(dp2303
g20
F40.61741
sg6
(lp2304
g1397
asg22
S'N06'
p2305
sg24
F-73.985026
sg13
S'20 Av'
p2306
sbag0
(g16
g2
Ntp2307
Rp2308
(dp2309
g20
F40.611815
sg6
(lp2310
g1397
asg22
S'N07'
p2311
sg24
F-73.981848
sg13
S'Bay Pkwy'
p2312
sbag0
(g16
g2
Ntp2313
Rp2314
(dp2315
g20
F40.603923
sg6
(lp2316
g1397
asg22
S'N08'
p2317
sg24
F-73.980353
sg13
S'Kings Hwy'
p2318
sbag0
(g16
g2
Ntp2319
Rp2320
(dp2321
g20
F40.597473
sg6
(lp2322
g1397
asg22
S'N09'
p2323
sg24
F-73.979137
sg13
S'Avenue U'
p2324
sbag0
(g16
g2
Ntp2325
Rp2326
(dp2327
g20
F40.592721
sg6
(lp2328
g1397
asg22
S'N10'
p2329
sg24
F-73.97823
sg13
S'86 St'
p2330
sbag1312
asbag1451
asg22
S'R36'
p2331
sg24
F-74.003549
sg13
S'36 St'
p2332
sbag2136
ag1958
ag1830
ag1836
ag1854
ag1860
ag1594
ag1519
ag1588
ag1540
ag1528
ag0
(g16
g2
Ntp2333
Rp2334
(dp2335
g20
F40.830135
sg6
(lp2336
g1316
asg22
S'D12'
p2337
sg24
F-73.938209
sg13
S'155 St'
p2338
sbag0
(g16
g2
Ntp2339
Rp2340
(dp2341
g20
F40.827905
sg6
(lp2342
g1316
asg22
S'D11'
p2343
sg24
F-73.925651
sg13
S'161 St - Yankee Stadium'
p2344
sbag0
(g16
g2
Ntp2345
Rp2346
(dp2347
g20
F40.833771
sg6
(lp2348
g1316
asg22
S'D10'
p2349
sg24
F-73.91844
sg13
S'167 St'
p2350
sbag0
(g16
g2
Ntp2351
Rp2352
(dp2353
g20
F40.839306
sg6
(lp2354
g1316
asg22
S'D09'
p2355
sg24
F-73.9134
sg13
S'170 St'
p2356
sbag0
(g16
g2
Ntp2357
Rp2358
(dp2359
g20
F40.8459
sg6
(lp2360
g1316
asg22
S'D08'
p2361
sg24
F-73.910136
sg13
S'174 - 175 Sts'
p2362
sbag0
(g16
g2
Ntp2363
Rp2364
(dp2365
g20
F40.85041
sg6
(lp2366
g1316
asg22
S'D07'
p2367
sg24
F-73.905227
sg13
S'Tremont Av'
p2368
sbag0
(g16
g2
Ntp2369
Rp2370
(dp2371
g20
F40.856093
sg6
(lp2372
g1316
asg22
S'D06'
p2373
sg24
F-73.900741
sg13
S'182 - 183 Sts'
p2374
sbag0
(g16
g2
Ntp2375
Rp2376
(dp2377
g20
F40.861296
sg6
(lp2378
g1316
asg22
S'D05'
p2379
sg24
F-73.897749
sg13
S'Fordham Rd'
p2380
sbag0
(g16
g2
Ntp2381
Rp2382
(dp2383
g20
F40.866978
sg6
(lp2384
g1316
asg22
S'D04'
p2385
sg24
F-73.893509
sg13
S'Kingsbridge Rd'
p2386
sbag0
(g16
g2
Ntp2387
Rp2388
(dp2389
g20
F40.873244
sg6
(lp2390
g1316
asg22
S'D03'
p2391
sg24
F-73.887138
sg13
S'Bedford Park Blvd'
p2392
sbag0
(g16
g2
Ntp2393
Rp2394
(dp2395
g20
F40.874811
sg6
(lp2396
g1316
asg22
S'D01'
p2397
sg24
F-73.878855
sg13
S'Norwood - 205 St'
p2398
sbasbag1307
ag1397
ag1406
asg22
S'D43'
p2399
sg24
F-73.981233
sg13
S'Coney Island - Stillwell Av'
p2400
sbag2270
ag0
(g16
g2
Ntp2401
Rp2402
(dp2403
g20
F40.581011
sg6
(lp2404
g1307
asg22
S'F39'
p2405
sg24
F-73.974574
sg13
S'Neptune Av'
p2406
sbag0
(g16
g2
Ntp2407
Rp2408
(dp2409
g20
F40.58962
sg6
(lp2410
g1307
asg22
S'F38'
p2411
sg24
F-73.97425
sg13
S'Avenue X'
p2412
sbag0
(g16
g2
Ntp2413
Rp2414
(dp2415
g20
F40.596063
sg6
(lp2416
g1307
asg22
S'F36'
p2417
sg24
F-73.973357
sg13
S'Avenue U'
p2418
sbag0
(g16
g2
Ntp2419
Rp2420
(dp2421
g20
F40.603217
sg6
(lp2422
g1307
asg22
S'F35'
p2423
sg24
F-73.972361
sg13
S'Kings Hwy'
p2424
sbag0
(g16
g2
Ntp2425
Rp2426
(dp2427
g20
F40.608944
sg6
(lp2428
g1307
asg22
S'F34'
p2429
sg24
F-73.973022
sg13
S'Avenue P'
p2430
sbag0
(g16
g2
Ntp2431
Rp2432
(dp2433
g20
F40.61514
sg6
(lp2434
g1307
asg22
S'F33'
p2435
sg24
F-73.974197
sg13
S'Avenue N'
p2436
sbag0
(g16
g2
Ntp2437
Rp2438
(dp2439
g20
F40.620769
sg6
(lp2440
g1307
asg22
S'F32'
p2441
sg24
F-73.975264
sg13
S'Bay Pkwy'
p2442
sbag0
(g16
g2
Ntp2443
Rp2444
(dp2445
g20
F40.625322
sg6
(lp2446
g1307
asg22
S'F31'
p2447
sg24
F-73.976127
sg13
S'Avenue I'
p2448
sbag0
(g16
g2
Ntp2449
Rp2450
(dp2451
g20
F40.629755
sg6
(lp2452
g1307
asg22
S'F30'
p2453
sg24
F-73.976971
sg13
S'18 Av'
p2454
sbag0
(g16
g2
Ntp2455
Rp2456
(dp2457
g20
F40.636119
sg6
(lp2458
g1307
asg22
S'F29'
p2459
sg24
F-73.978172
sg13
S'Ditmas Av'
p2460
sbag1303
ag0
(g16
g2
Ntp2461
Rp2462
(dp2463
g20
F40.650782
sg6
(lp2464
g1298
ag1307
asg22
S'F26'
p2465
sg24
F-73.975776
sg13
S'Fort Hamilton Pkwy'
p2466
sbag0
(g16
g2
Ntp2467
Rp2468
(dp2469
g20
F40.660365
sg6
(lp2470
g1298
ag1307
asg22
S'F25'
p2471
sg24
F-73.979493
sg13
S'15 St - Prospect Park'
p2472
sbag0
(g16
g2
Ntp2473
Rp2474
(dp2475
g20
F40.666271
sg6
(lp2476
g1298
ag1307
asg22
S'F24'
p2477
sg24
F-73.980305
sg13
S'7 Av'
p2478
sbag0
(g16
g2
Ntp2479
Rp2480
(dp2481
g20
F40.670272
sg6
(lp2482
g1298
ag1307
asg22
S'F23'
p2483
sg24
F-73.989779
sg13
S'4 Av'
p2484
sbag0
(g16
g2
Ntp2485
Rp2486
(dp2487
g20
F40.67358
sg6
(lp2488
g1298
ag1307
asg22
S'F22'
p2489
sg24
F-73.995959
sg13
S'Smith - 9 Sts'
p2490
sbag0
(g16
g2
Ntp2491
Rp2492
(dp2493
g20
F40.680303
sg6
(lp2494
g1298
ag1307
asg22
S'F21'
p2495
sg24
F-73.995048
sg13
S'Carroll St'
p2496
sbag0
(g16
g2
Ntp2497
Rp2498
(dp2499
g20
F40.686145
sg6
(lp2500
g1298
ag1307
asg22
S'F20'
p2501
sg24
F-73.990862
sg13
S'Bergen St'
p2502
sbag0
(g16
g2
Ntp2503
Rp2504
(dp2505
g20
F40.692338
sg6
(lp2506
g1102
ag1217
ag1307
asg22
S'A41'
p2507
sg24
F-73.987342
sg13
S'Jay St - MetroTech'
p2508
sbag0
(g16
g2
Ntp2509
Rp2510
(dp2511
g20
F40.699743
sg6
(lp2512
g1307
asg22
S'F18'
p2513
sg24
F-73.986885
sg13
S'York St'
p2514
sbag0
(g16
g2
Ntp2515
Rp2516
(dp2517
g20
F40.713715
sg6
(lp2518
g1307
asg22
S'F16'
p2519
sg24
F-73.990173
sg13
S'East Broadway'
p2520
sbag0
(g16
g2
Ntp2521
Rp2522
(dp2523
g20
F40.718611
sg6
(lp2524
g1307
asg22
S'F15'
p2525
sg24
F-73.988114
sg13
S'Delancey St'
p2526
sbag0
(g16
g2
Ntp2527
Rp2528
(dp2529
g20
F40.723402
sg6
(lp2530
g1307
asg22
S'F14'
p2531
sg24
F-73.989938
sg13
S'2 Av'
p2532
sbag1830
ag1836
ag1842
ag1848
ag1854
ag1860
ag1594
ag0
(g16
g2
Ntp2533
Rp2534
(dp2535
g20
F40.763972
sg6
(lp2536
g1307
asg22
S'B10'
p2537
sg24
F-73.97745
sg13
S'57 St'
p2538
sbag0
(g16
g2
Ntp2539
Rp2540
(dp2541
g20
F40.764629
sg6
(lp2542
g1307
asg22
S'B08'
p2543
sg24
F-73.966113
sg13
S'Lexington Av/63 St'
p2544
sbag0
(g16
g2
Ntp2545
Rp2546
(dp2547
g20
F40.759145
sg6
(lp2548
g1307
asg22
S'B06'
p2549
sg24
F-73.95326
sg13
S'Roosevelt Island'
p2550
sbag0
(g16
g2
Ntp2551
Rp2552
(dp2553
g20
F40.754203
sg6
(lp2554
g1307
asg22
S'B04'
p2555
sg24
F-73.942836
sg13
S'21 St - Queensbridge'
p2556
sbag1920
ag1456
ag0
(g16
g2
Ntp2557
Rp2558
(dp2559
g20
F40.718331
sg6
(lp2560
g1307
asg22
S'F07'
p2561
sg24
F-73.837324
sg13
S'75 Av'
p2562
sbag2020
ag0
(g16
g2
Ntp2563
Rp2564
(dp2565
g20
F40.709179
sg6
(lp2566
g1307
asg22
S'F05'
p2567
sg24
F-73.820574
sg13
S'Briarwood - Van Wyck Blvd'
p2568
sbag0
(g16
g2
Ntp2569
Rp2570
(dp2571
g20
F40.70546
sg6
(lp2572
g1307
asg22
S'F04'
p2573
sg24
F-73.810708
sg13
S'Sutphin Blvd'
p2574
sbag0
(g16
g2
Ntp2575
Rp2576
(dp2577
g20
F40.707564
sg6
(lp2578
g1307
asg22
S'F03'
p2579
sg24
F-73.803326
sg13
S'Parsons Blvd'
p2580
sbag0
(g16
g2
Ntp2581
Rp2582
(dp2583
g20
F40.71047
sg6
(lp2584
g1307
asg22
S'F02'
p2585
sg24
F-73.793604
sg13
S'169 St'
p2586
sbag0
(g16
g2
Ntp2587
Rp2588
(dp2589
g20
F40.712646
sg6
(lp2590
g1307
asg22
S'F01'
p2591
sg24
F-73.783817
sg13
S'Jamaica - 179 St'
p2592
sbasbasg22
S'F27'
p2593
sg24
F-73.979678
sg13
S'Church Av'
p2594
sbag2462
ag2468
ag2474
ag2480
ag2486
ag2492
ag2498
ag1294
ag0
(g16
g2
Ntp2595
Rp2596
(dp2597
g20
F40.687119
sg6
(lp2598
g1298
asg22
S'G36'
p2599
sg24
F-73.975375
sg13
S'Fulton St'
p2600
sbag0
(g16
g2
Ntp2601
Rp2602
(dp2603
g20
F40.688089
sg6
(lp2604
g1298
asg22
S'G35'
p2605
sg24
F-73.966839
sg13
S'Clinton - Washington Avs'
p2606
sbag0
(g16
g2
Ntp2607
Rp2608
(dp2609
g20
F40.688873
sg6
(lp2610
g1298
asg22
S'G34'
p2611
sg24
F-73.96007
sg13
S'Classon Av'
p2612
sbag0
(g16
g2
Ntp2613
Rp2614
(dp2615
g20
F40.689627
sg6
(lp2616
g1298
asg22
S'G33'
p2617
sg24
F-73.953522
sg13
S'Bedford - Nostrand Avs'
p2618
sbag0
(g16
g2
Ntp2619
Rp2620
(dp2621
g20
F40.694568
sg6
(lp2622
g1298
asg22
S'G32'
p2623
sg24
F-73.949046
sg13
S'Myrtle - Willoughby Avs'
p2624
sbag0
(g16
g2
Ntp2625
Rp2626
(dp2627
g20
F40.700377
sg6
(lp2628
g1298
asg22
S'G31'
p2629
sg24
F-73.950234
sg13
S'Flushing Av'
p2630
sbag0
(g16
g2
Ntp2631
Rp2632
(dp2633
g20
F40.706092
sg6
(lp2634
g1298
asg22
S'G30'
p2635
sg24
F-73.950308
sg13
S'Broadway'
p2636
sbag0
(g16
g2
Ntp2637
Rp2638
(dp2639
g20
F40.712792
sg6
(lp2640
g1298
asg22
S'G29'
p2641
sg24
F-73.951418
sg13
S'Metropolitan Av'
p2642
sbag0
(g16
g2
Ntp2643
Rp2644
(dp2645
g20
F40.724635
sg6
(lp2646
g1298
asg22
S'G28'
p2647
sg24
F-73.951277
sg13
S'Nassau Av'
p2648
sbag0
(g16
g2
Ntp2649
Rp2650
(dp2651
g20
F40.731352
sg6
(lp2652
g1298
asg22
S'G26'
p2653
sg24
F-73.954449
sg13
S'Greenpoint Av'
p2654
sbag0
(g16
g2
Ntp2655
Rp2656
(dp2657
g20
F40.744065
sg6
(lp2658
g1298
asg22
S'G24'
p2659
sg24
F-73.949724
sg13
S'21 St'
p2660
sbag0
(g16
g2
Ntp2661
Rp2662
(dp2663
g20
F40.746554
sg6
(lp2664
g1298
asg22
S'G22'
p2665
sg24
F-73.943832
sg13
S'Long Island City - Court Sq'
p2666
sbasbasg22
S'A42'
p2667
sg24
F-73.985001
sg13
S'Hoyt - Schermerhorn Sts'
p2668
sbag2504
ag0
(g16
g2
Ntp2669
Rp2670
(dp2671
g20
F40.699337
sg6
(lp2672
g1102
ag1217
asg22
S'A40'
p2673
sg24
F-73.990531
sg13
S'High St'
p2674
sbag0
(g16
g2
Ntp2675
Rp2676
(dp2677
g20
F40.710197
sg6
(lp2678
g1102
ag1217
asg22
S'A38'
p2679
sg24
F-74.007691
sg13
S'Fulton St'
p2680
sbag0
(g16
g2
Ntp2681
Rp2682
(dp2683
g20
F40.714111
sg6
(lp2684
g1102
ag1217
asg22
S'A36'
p2685
sg24
F-74.008585
sg13
S'Chambers St'
p2686
sbag1471
ag1477
ag1483
ag1489
ag1495
ag1501
ag1507
ag1513
ag1588
ag1582
ag1576
ag1570
ag1564
ag1558
ag1552
ag1546
ag1540
ag1534
ag0
(g16
g2
Ntp2687
Rp2688
(dp2689
g20
F40.824783
sg6
(lp2690
g1102
ag1217
asg22
S'A12'
p2691
sg24
F-73.944216
sg13
S'145 St'
p2692
sbag0
(g16
g2
Ntp2693
Rp2694
(dp2695
g20
F40.830518
sg6
(lp2696
g1217
asg22
S'A11'
p2697
sg24
F-73.941514
sg13
S'155 St'
p2698
sbag0
(g16
g2
Ntp2699
Rp2700
(dp2701
g20
F40.836013
sg6
(lp2702
g1217
asg22
S'A10'
p2703
sg24
F-73.939892
sg13
S'163 St - Amsterdam Av'
p2704
sbag0
(g16
g2
Ntp2705
Rp2706
(dp2707
g20
F40.840719
sg6
(lp2708
g1102
ag1217
asg22
S'A09'
p2709
sg24
F-73.939561
sg13
S'168 St'
p2710
sbasbasg22
S'A55'
p2711
sg24
F-73.872106
sg13
S'Euclid Av'
p2712
sbag1240
ag1258
ag1270
ag1294
ag2504
ag2670
ag2676
ag2682
ag1471
ag1483
ag1489
ag1501
ag1507
ag1588
ag1540
ag2688
ag2706
ag0
(g16
g2
Ntp2713
Rp2714
(dp2715
g20
F40.847391
sg6
(lp2716
g1102
asg22
S'A07'
p2717
sg24
F-73.939704
sg13
S'175 St'
p2718
sbag0
(g16
g2
Ntp2719
Rp2720
(dp2721
g20
F40.851695
sg6
(lp2722
g1102
asg22
S'A06'
p2723
sg24
F-73.937969
sg13
S'181 St'
p2724
sbag0
(g16
g2
Ntp2725
Rp2726
(dp2727
g20
F40.859022
sg6
(lp2728
g1102
asg22
S'A05'
p2729
sg24
F-73.93418
sg13
S'190 St'
p2730
sbag0
(g16
g2
Ntp2731
Rp2732
(dp2733
g20
F40.865491
sg6
(lp2734
g1102
asg22
S'A03'
p2735
sg24
F-73.927271
sg13
S'Dyckman St'
p2736
sbag0
(g16
g2
Ntp2737
Rp2738
(dp2739
g20
F40.868072
sg6
(lp2740
g1102
asg22
S'A02'
p2741
sg24
F-73.919899
sg13
S'Inwood - 207 St'
p2742
sbasbsg1219
g1217
sg1525
g1523
sg1462
g1460
sg1318
g1316
sg1300
g1298
sg1309
g1307
sg1148
g1146
sg1651
g1649
sg1600
g1598
sS'L'
p2743
g0
(g9
g2
Ntp2744
Rp2745
(dp2746
g13
g2743
sg14
(lp2747
g0
(g16
g2
Ntp2748
Rp2749
(dp2750
g20
F40.739777
sg6
(lp2751
g2745
asg22
S'L01'
p2752
sg24
F-74.002578
sg13
S'8 Av'
p2753
sbag0
(g16
g2
Ntp2754
Rp2755
(dp2756
g20
F40.737335
sg6
(lp2757
g2745
asg22
S'L02'
p2758
sg24
F-73.996786
sg13
S'6 Av'
p2759
sbag0
(g16
g2
Ntp2760
Rp2761
(dp2762
g20
F40.734789
sg6
(lp2763
g2745
asg22
S'L03'
p2764
sg24
F-73.99073
sg13
S'Union Sq - 14 St'
p2765
sbag0
(g16
g2
Ntp2766
Rp2767
(dp2768
g20
F40.732849
sg6
(lp2769
g2745
asg22
S'L05'
p2770
sg24
F-73.986122
sg13
S'3 Av'
p2771
sbag0
(g16
g2
Ntp2772
Rp2773
(dp2774
g20
F40.730953
sg6
(lp2775
g2745
asg22
S'L06'
p2776
sg24
F-73.981628
sg13
S'1 Av'
p2777
sbag0
(g16
g2
Ntp2778
Rp2779
(dp2780
g20
F40.717304
sg6
(lp2781
g2745
asg22
S'L08'
p2782
sg24
F-73.956872
sg13
S'Bedford Av'
p2783
sbag0
(g16
g2
Ntp2784
Rp2785
(dp2786
g20
F40.714063
sg6
(lp2787
g2745
asg22
S'L10'
p2788
sg24
F-73.950275
sg13
S'Lorimer St'
p2789
sbag0
(g16
g2
Ntp2790
Rp2791
(dp2792
g20
F40.714565
sg6
(lp2793
g2745
asg22
S'L11'
p2794
sg24
F-73.944053
sg13
S'Graham Av'
p2795
sbag0
(g16
g2
Ntp2796
Rp2797
(dp2798
g20
F40.711926
sg6
(lp2799
g2745
asg22
S'L12'
p2800
sg24
F-73.94067
sg13
S'Grand St'
p2801
sbag0
(g16
g2
Ntp2802
Rp2803
(dp2804
g20
F40.707739
sg6
(lp2805
g2745
asg22
S'L13'
p2806
sg24
F-73.93985
sg13
S'Montrose Av'
p2807
sbag0
(g16
g2
Ntp2808
Rp2809
(dp2810
g20
F40.706152
sg6
(lp2811
g2745
asg22
S'L14'
p2812
sg24
F-73.933147
sg13
S'Morgan Av'
p2813
sbag0
(g16
g2
Ntp2814
Rp2815
(dp2816
g20
F40.706607
sg6
(lp2817
g2745
asg22
S'L15'
p2818
sg24
F-73.922913
sg13
S'Jefferson St'
p2819
sbag0
(g16
g2
Ntp2820
Rp2821
(dp2822
g20
F40.703811
sg6
(lp2823
g2745
asg22
S'L16'
p2824
sg24
F-73.918425
sg13
S'DeKalb Av'
p2825
sbag0
(g16
g2
Ntp2826
Rp2827
(dp2828
g20
F40.699814
sg6
(lp2829
g2745
asg22
S'L17'
p2830
sg24
F-73.911586
sg13
S'Myrtle - Wyckoff Avs'
p2831
sbag0
(g16
g2
Ntp2832
Rp2833
(dp2834
g20
F40.695602
sg6
(lp2835
g2745
asg22
S'L19'
p2836
sg24
F-73.904084
sg13
S'Halsey St'
p2837
sbag0
(g16
g2
Ntp2838
Rp2839
(dp2840
g20
F40.688764
sg6
(lp2841
g2745
asg22
S'L20'
p2842
sg24
F-73.904046
sg13
S'Wilson Av'
p2843
sbag0
(g16
g2
Ntp2844
Rp2845
(dp2846
g20
F40.682829
sg6
(lp2847
g2745
asg22
S'L21'
p2848
sg24
F-73.905249
sg13
S'Bushwick Av - Aberdeen St'
p2849
sbag0
(g16
g2
Ntp2850
Rp2851
(dp2852
g20
F40.678856
sg6
(lp2853
g2745
asg22
S'L22'
p2854
sg24
F-73.90324
sg13
S'Broadway Jct'
p2855
sbag0
(g16
g2
Ntp2856
Rp2857
(dp2858
g20
F40.675345
sg6
(lp2859
g2745
asg22
S'L24'
p2860
sg24
F-73.903097
sg13
S'Atlantic Av'
p2861
sbag0
(g16
g2
Ntp2862
Rp2863
(dp2864
g20
F40.669367
sg6
(lp2865
g2745
asg22
S'L25'
p2866
sg24
F-73.901975
sg13
S'Sutter Av'
p2867
sbag0
(g16
g2
Ntp2868
Rp2869
(dp2870
g20
F40.664038
sg6
(lp2871
g2745
asg22
S'L26'
p2872
sg24
F-73.900571
sg13
S'Livonia Av'
p2873
sbag0
(g16
g2
Ntp2874
Rp2875
(dp2876
g20
F40.658733
sg6
(lp2877
g2745
asg22
S'L27'
p2878
sg24
F-73.899232
sg13
S'New Lots Av'
p2879
sbag0
(g16
g2
Ntp2880
Rp2881
(dp2882
g20
F40.650573
sg6
(lp2883
g2745
asg22
S'L28'
p2884
sg24
F-73.899485
sg13
S'E 105 St'
p2885
sbag0
(g16
g2
Ntp2886
Rp2887
(dp2888
g20
F40.646654
sg6
(lp2889
g2745
asg22
S'L29'
p2890
sg24
F-73.90185
sg13
S'Canarsie - Rockaway Pkwy'
p2891
sbasbsg1399
g1397
sg1408
g1406
sS'S'
p2892
g0
(g9
g2
Ntp2893
Rp2894
(dp2895
g13
g2892
sg14
(lp2896
g0
(g16
g2
Ntp2897
Rp2898
(dp2899
g20
F40.512764
sg6
(lp2900
g2894
asg22
S'S09'
p2901
sg24
F-74.251961
sg13
S'Tottenville'
p2902
sbag0
(g16
g2
Ntp2903
Rp2904
(dp2905
g20
F40.515401
sg6
(lp2906
g2894
asg22
S'S10'
p2907
sg24
F-74.245689
sg13
S'Atlantic'
p2908
sbag0
(g16
g2
Ntp2909
Rp2910
(dp2911
g20
F40.517812
sg6
(lp2912
g2894
asg22
S'S12'
p2913
sg24
F-74.238373
sg13
S'Nassau'
p2914
sbag0
(g16
g2
Ntp2915
Rp2916
(dp2917
g20
F40.519631
sg6
(lp2918
g2894
asg22
S'S13'
p2919
sg24
F-74.229141
sg13
S'Richmond Valley'
p2920
sbag0
(g16
g2
Ntp2921
Rp2922
(dp2923
g20
F40.52241
sg6
(lp2924
g2894
asg22
S'S14'
p2925
sg24
F-74.217847
sg13
S'Pleasant Plains'
p2926
sbag0
(g16
g2
Ntp2927
Rp2928
(dp2929
g20
F40.525507
sg6
(lp2930
g2894
asg22
S'S15'
p2931
sg24
F-74.200064
sg13
S"Prince's Bay"
p2932
sbag0
(g16
g2
Ntp2933
Rp2934
(dp2935
g20
F40.533674
sg6
(lp2936
g2894
asg22
S'S16'
p2937
sg24
F-74.191794
sg13
S'Huguenot'
p2938
sbag0
(g16
g2
Ntp2939
Rp2940
(dp2941
g20
F40.54046
sg6
(lp2942
g2894
asg22
S'S17'
p2943
sg24
F-74.178217
sg13
S'Annadale'
p2944
sbag0
(g16
g2
Ntp2945
Rp2946
(dp2947
g20
F40.544601
sg6
(lp2948
g2894
asg22
S'S18'
p2949
sg24
F-74.16457
sg13
S'Eltingville'
p2950
sbag0
(g16
g2
Ntp2951
Rp2952
(dp2953
g20
F40.551231
sg6
(lp2954
g2894
asg22
S'S19'
p2955
sg24
F-74.151399
sg13
S'Great Kills'
p2956
sbag0
(g16
g2
Ntp2957
Rp2958
(dp2959
g20
F40.5564
sg6
(lp2960
g2894
asg22
S'S20'
p2961
sg24
F-74.136907
sg13
S'Bay Terrace'
p2962
sbag0
(g16
g2
Ntp2963
Rp2964
(dp2965
g20
F40.56511
sg6
(lp2966
g2894
asg22
S'S21'
p2967
sg24
F-74.12632
sg13
S'Oakwood Heights'
p2968
sbag0
(g16
g2
Ntp2969
Rp2970
(dp2971
g20
F40.57348
sg6
(lp2972
g2894
asg22
S'S22'
p2973
sg24
F-74.11721
sg13
S'New Dorp'
p2974
sbag0
(g16
g2
Ntp2975
Rp2976
(dp2977
g20
F40.578965
sg6
(lp2978
g2894
asg22
S'S23'
p2979
sg24
F-74.109704
sg13
S'Grant City'
p2980
sbag0
(g16
g2
Ntp2981
Rp2982
(dp2983
g20
F40.583591
sg6
(lp2984
g2894
asg22
S'S24'
p2985
sg24
F-74.103338
sg13
S'Jefferson Av'
p2986
sbag0
(g16
g2
Ntp2987
Rp2988
(dp2989
g20
F40.588849
sg6
(lp2990
g2894
asg22
S'S25'
p2991
sg24
F-74.09609
sg13
S'Dongan Hills'
p2992
sbag0
(g16
g2
Ntp2993
Rp2994
(dp2995
g20
F40.596612
sg6
(lp2996
g2894
asg22
S'S26'
p2997
sg24
F-74.087368
sg13
S'Old Town'
p2998
sbag0
(g16
g2
Ntp2999
Rp3000
(dp3001
g20
F40.603117
sg6
(lp3002
g2894
asg22
S'S27'
p3003
sg24
F-74.084087
sg13
S'Grasmere'
p3004
sbag0
(g16
g2
Ntp3005
Rp3006
(dp3007
g20
F40.621319
sg6
(lp3008
g2894
asg22
S'S28'
p3009
sg24
F-74.071402
sg13
S'Clifton'
p3010
sbag0
(g16
g2
Ntp3011
Rp3012
(dp3013
g20
F40.627915
sg6
(lp3014
g2894
asg22
S'S29'
p3015
sg24
F-74.075162
sg13
S'Stapleton'
p3016
sbag0
(g16
g2
Ntp3017
Rp3018
(dp3019
g20
F40.636949
sg6
(lp3020
g2894
asg22
S'S30'
p3021
sg24
F-74.074835
sg13
S'Tompkinsville'
p3022
sbag0
(g16
g2
Ntp3023
Rp3024
(dp3025
g20
F40.643748
sg6
(lp3026
g2894
asg22
S'S31'
p3027
sg24
F-74.073643
sg13
S'St George'
p3028
sbasbsg1453
g1451
ssS'graph'
p3029
(dp3030
g1732
(dp3031
g1726
F1.0
sg1738
F1.0
ssg1726
(dp3032
g1720
F1.0
sg1732
F1.0
ssg1720
(dp3033
g1714
F1.0
sg1726
F1.0
ssg1714
(dp3034
g1645
F1.0
sg1720
F1.0
ssg2749
(dp3035
g2755
F1.0
sg2887
F1.0
ssg616
(dp3036
g610
F1.0
sg622
F1.0
ssg2755
(dp3037
g2749
F1.0
sg2761
F1.0
ssg2761
(dp3038
g2755
F1.0
sg2767
F1.0
ssg1848
(dp3039
g1842
F1.0
sg1854
F1.0
ssg2767
(dp3040
g2761
F1.0
sg2773
F1.0
ssg2773
(dp3041
g2767
F1.0
sg2779
F1.0
ssg2779
(dp3042
g2773
F1.0
sg2785
F1.0
ssg2785
(dp3043
g2779
F1.0
sg2791
F1.0
ssg622
(dp3044
g616
F1.0
sg782
F1.0
sg428
F1.0
ssg2791
(dp3045
g2785
F1.0
sg2797
F1.0
ssg2797
(dp3046
g2791
F1.0
sg2803
F1.0
ssg1842
(dp3047
g1836
F1.0
sg1848
F1.0
ssg1994
(dp3048
g2000
F1.0
sg2228
F1.0
sg2234
F1.0
sg1988
F1.0
ssg2234
(dp3049
g1994
F1.0
sg2240
F1.0
ssg2240
(dp3050
g2234
F1.0
sg2246
F1.0
ssg2246
(dp3051
g2240
F1.0
sg2000
F1.0
ssg610
(dp3052
g604
F1.0
sg616
F1.0
ssg2000
(dp3053
g1994
F1.0
sg2006
F1.0
sg2246
F1.0
sg2252
F1.0
ssg2252
(dp3054
g2000
F1.0
sg2258
F1.0
ssg1836
(dp3055
g1842
F1.0
sg1854
F1.0
sg1830
F1.0
ssg2258
(dp3056
g2252
F1.0
sg2006
F1.0
ssg2833
(dp3057
g2839
F1.0
sg2827
F1.0
ssg2012
(dp3058
g2006
F1.0
sg2264
F1.0
ssg2264
(dp3059
g2012
F1.0
sg2270
F1.0
ssg2857
(dp3060
g2863
F1.0
sg2851
F1.0
ssg2270
(dp3061
g2402
F1.0
sg1312
F1.0
sg2264
F1.0
ssg2863
(dp3062
g2857
F1.0
sg2869
F1.0
ssg1312
(dp3063
g1321
F1.0
sg2394
F1.0
sg2588
F1.0
sg2326
F1.0
sg2270
F1.0
ssg2588
(dp3064
g2582
F1.0
ssg2881
(dp3065
g2875
F1.0
sg2887
F1.0
ssg604
(dp3066
g610
F1.0
sg598
F1.0
ssg2582
(dp3067
g2588
F1.0
sg2576
F1.0
ssg2576
(dp3068
g2570
F1.0
sg2582
F1.0
ssg1830
(dp3069
g1958
F1.0
sg1836
F1.0
sg1684
F1.0
sg2528
F1.0
ssg2570
(dp3070
g2564
F1.0
sg2576
F1.0
ssg1603
(dp3071
g1609
F1.0
sg1456
F1.0
ssg2564
(dp3072
g2020
F1.0
sg2570
F1.0
ssg1621
(dp3073
g1615
F1.0
sg1627
F1.0
ssg562
(dp3074
g568
F1.0
sg556
F1.0
ssg2020
(dp3075
g2564
F1.0
sg2026
F1.0
sg1456
F1.0
sg2558
F1.0
ssg1878
(dp3076
g1884
F1.0
sg1872
F1.0
ssg1970
(dp3077
g1964
F1.0
sg1976
F1.0
ssg1639
(dp3078
g1645
F1.0
sg1633
F1.0
ssg1872
(dp3079
g1866
F1.0
sg1878
F1.0
ssg1645
(dp3080
g1714
F1.0
sg1708
F1.0
sg1639
F1.0
ssg1708
(dp3081
g1702
F1.0
sg1645
F1.0
ssg2522
(dp3082
g2516
F1.0
sg2528
F1.0
ssg2516
(dp3083
g2510
F1.0
sg2522
F1.0
ssg1958
(dp3084
g1964
F1.0
sg1830
F1.0
sg2136
F1.0
ssg1690
(dp3085
g1684
F1.0
sg1696
F1.0
ssg2498
(dp3086
g2492
F1.0
sg1294
F1.0
sg2504
F1.0
ssg1678
(dp3087
g1672
F1.0
sg1684
F1.0
ssg1672
(dp3088
g1666
F1.0
sg1678
F1.0
ssg0
(g16
g2
Ntp3089
Rp3090
(dp3091
g20
F40.685951
sg6
(lp3092
sg22
S'A65'
p3093
sg24
F-73.825798
sg13
S'Ozone Park - Lefferts Blvd'
p3094
sb(dp3095
sg2480
(dp3096
g2474
F1.0
sg2486
F1.0
ssg1660
(dp3097
g1654
F1.0
sg1666
F1.0
ssg1976
(dp3098
g1970
F1.0
sg1982
F1.0
ssg1654
(dp3099
g1822
F1.0
sg1660
F1.0
ssg2468
(dp3100
g2462
F1.0
sg2474
F1.0
ssg1303
(dp3101
g2662
F1.0
sg2462
F1.0
sg2456
F1.0
ssg2290
(dp3102
g2284
F1.0
sg2296
F1.0
ssg2296
(dp3103
g2290
F1.0
sg2302
F1.0
ssg2302
(dp3104
g2296
F1.0
sg2308
F1.0
ssg1982
(dp3105
g1976
F1.0
sg1988
F1.0
sg2216
F1.0
ssg2308
(dp3106
g2302
F1.0
sg2314
F1.0
ssg2314
(dp3107
g2308
F1.0
sg2320
F1.0
ssg2320
(dp3108
g2314
F1.0
sg2326
F1.0
ssg2326
(dp3109
g2320
F1.0
sg1312
F1.0
ssg544
(dp3110
g538
F1.0
sg550
F1.0
ssg2210
(dp3111
g2136
F1.0
sg2088
F1.0
sg1964
F1.0
sg2076
F1.0
ssg2414
(dp3112
g2408
F1.0
sg2420
F1.0
ssg2216
(dp3113
g1982
F1.0
sg1988
F1.0
ssg1402
(dp3114
g1312
F1.0
sg1411
F1.0
ssg1411
(dp3115
g1402
F1.0
sg1417
F1.0
ssg2540
(dp3116
g2534
F1.0
sg2546
F1.0
ssg1988
(dp3117
g1994
F1.0
sg2216
F1.0
sg1982
F1.0
sg2222
F1.0
ssg2546
(dp3118
g2540
F1.0
sg2552
F1.0
ssg2222
(dp3119
g1988
F1.0
sg2228
F1.0
ssg2534
(dp3120
g2540
F1.0
sg1594
F1.0
ssg2228
(dp3121
g2222
F1.0
sg1994
F1.0
ssg1387
(dp3122
g1381
F1.0
sg1393
F1.0
ssg2803
(dp3123
g2797
F1.0
sg2809
F1.0
ssg1381
(dp3124
g1375
F1.0
sg1387
F1.0
ssg2809
(dp3125
g2803
F1.0
sg2815
F1.0
ssg1375
(dp3126
g1369
F1.0
sg1381
F1.0
ssg2815
(dp3127
g2809
F1.0
sg2821
F1.0
ssg1369
(dp3128
g1363
F1.0
sg1375
F1.0
ssg2821
(dp3129
g2815
F1.0
sg2827
F1.0
ssg1363
(dp3130
g1357
F1.0
sg1369
F1.0
ssg1357
(dp3131
g1351
F1.0
sg1363
F1.0
ssg2827
(dp3132
g2821
F1.0
sg2833
F1.0
ssg1351
(dp3133
g1345
F1.0
sg1357
F1.0
ssg2839
(dp3134
g2833
F1.0
sg2845
F1.0
ssg1345
(dp3135
g1339
F1.0
sg1351
F1.0
ssg2006
(dp3136
g2000
F1.0
sg2012
F1.0
sg2258
F1.0
ssg198
(dp3137
g189
F1.0
sg204
F1.0
ssg189
(dp3138
g222
F1.0
sg198
F1.0
sg414
F1.0
sg183
F1.0
ssg1339
(dp3139
g1333
F1.0
sg1345
F1.0
ssg1095
(dp3140
g1089
F1.0
ssg1089
(dp3141
g1083
F1.0
sg1095
F1.0
ssg1083
(dp3142
g1089
F1.0
sg1077
F1.0
ssg1077
(dp3143
g1083
F1.0
sg1071
F1.0
ssg1333
(dp3144
g1327
F1.0
sg1339
F1.0
ssg1065
(dp3145
g1059
F1.0
sg1071
F1.0
ssg1071
(dp3146
g1065
F1.0
sg1077
F1.0
ssg2845
(dp3147
g2839
F1.0
sg2851
F1.0
ssg1059
(dp3148
g1065
F1.0
sg1053
F1.0
ssg1053
(dp3149
g1047
F1.0
sg1059
F1.0
ssg1047
(dp3150
g1041
F1.0
sg1053
F1.0
ssg1041
(dp3151
g1035
F1.0
sg1047
F1.0
ssg1327
(dp3152
g1321
F1.0
sg1333
F1.0
ssg1035
(dp3153
g1029
F1.0
sg1041
F1.0
ssg1029
(dp3154
g1023
F1.0
sg1035
F1.0
ssg1023
(dp3155
g1017
F1.0
sg1029
F1.0
ssg1017
(dp3156
g1011
F1.0
sg1023
F1.0
ssg1011
(dp3157
g1005
F1.0
sg1017
F1.0
ssg1321
(dp3158
g1312
F1.0
sg1327
F1.0
ssg1005
(dp3159
g999
F1.0
sg1011
F1.0
ssg2851
(dp3160
g2857
F1.0
sg2845
F1.0
ssg999
(dp3161
g1005
F1.0
sg993
F1.0
ssg993
(dp3162
g999
F1.0
sg987
F1.0
ssg987
(dp3163
g981
F1.0
sg993
F1.0
ssg770
(dp3164
g776
F1.0
sg90
F1.0
ssg975
(dp3165
g1095
F1.0
sg981
F1.0
ssg981
(dp3166
g975
F1.0
sg987
F1.0
ssg0
(g16
g2
Ntp3167
Rp3168
(dp3169
g20
F40.752769
sg6
(lp3170
sg22
S'901'
p3171
sg24
F-73.979189
sg13
S'Grand Central - 42 St'
p3172
sb(dp3173
sg2738
(dp3174
g2732
F1.0
ssg0
(g16
g2
Ntp3175
Rp3176
(dp3177
g20
F40.755983
sg6
(lp3178
sg22
S'902'
p3179
sg24
F-73.986229
sg13
S'Times Sq - 42 St'
p3180
sb(dp3181
sg2732
(dp3182
g2738
F1.0
sg2726
F1.0
ssg2726
(dp3183
g2720
F1.0
sg2732
F1.0
ssg2869
(dp3184
g2863
F1.0
sg2875
F1.0
ssg2720
(dp3185
g2714
F1.0
sg2726
F1.0
ssg2714
(dp3186
g2706
F1.0
sg2720
F1.0
ssg2706
(dp3187
g2700
F1.0
sg2688
F1.0
sg2714
F1.0
ssg2382
(dp3188
g2376
F1.0
sg2388
F1.0
ssg2700
(dp3189
g2694
F1.0
sg2706
F1.0
ssg2688
(dp3190
g2706
F1.0
sg1540
F1.0
sg1534
F1.0
sg2694
F1.0
ssg2875
(dp3191
g2869
F1.0
sg2881
F1.0
ssg2694
(dp3192
g2700
F1.0
sg2688
F1.0
ssg1534
(dp3193
g1540
F1.0
sg2688
F1.0
sg1528
F1.0
ssg1540
(dp3194
g1588
F1.0
sg2688
F1.0
sg1534
F1.0
sg1546
F1.0
sg1528
F1.0
ssg1546
(dp3195
g1540
F1.0
sg1552
F1.0
ssg1552
(dp3196
g1558
F1.0
sg1546
F1.0
ssg1465
(dp3197
g1822
F1.0
sg1471
F1.0
ssg1564
(dp3198
g1570
F1.0
sg1558
F1.0
ssg1558
(dp3199
g1564
F1.0
sg1552
F1.0
ssg1570
(dp3200
g1564
F1.0
sg1576
F1.0
ssg1576
(dp3201
g1582
F1.0
sg1570
F1.0
ssg2370
(dp3202
g2364
F1.0
sg2376
F1.0
ssg1582
(dp3203
g1588
F1.0
sg1576
F1.0
ssg1588
(dp3204
g1540
F1.0
sg1519
F1.0
sg1507
F1.0
sg1513
F1.0
sg1582
F1.0
ssg1507
(dp3205
g1501
F1.0
sg1588
F1.0
sg1513
F1.0
ssg1513
(dp3206
g1588
F1.0
sg1507
F1.0
sg1519
F1.0
ssg2364
(dp3207
g2358
F1.0
sg2370
F1.0
ssg1501
(dp3208
g1495
F1.0
sg1489
F1.0
sg1507
F1.0
ssg1489
(dp3209
g1501
F1.0
sg1483
F1.0
sg1495
F1.0
ssg2887
(dp3210
g2881
F1.0
ssg1495
(dp3211
g1501
F1.0
sg1489
F1.0
ssg1483
(dp3212
g1477
F1.0
sg1471
F1.0
sg1489
F1.0
ssg1477
(dp3213
g1471
F1.0
sg1483
F1.0
ssg1471
(dp3214
g1477
F1.0
sg1483
F1.0
sg1465
F1.0
sg2682
F1.0
ssg2358
(dp3215
g2352
F1.0
sg2364
F1.0
ssg1417
(dp3216
g1423
F1.0
sg1411
F1.0
ssg1609
(dp3217
g1615
F1.0
sg1603
F1.0
ssg1423
(dp3218
g1417
F1.0
sg1429
F1.0
ssg1429
(dp3219
g1423
F1.0
sg1435
F1.0
ssg1435
(dp3220
g1429
F1.0
sg1441
F1.0
ssg1441
(dp3221
g1435
F1.0
sg1447
F1.0
ssg2352
(dp3222
g2346
F1.0
sg2358
F1.0
ssg1447
(dp3223
g1884
F1.0
sg1441
F1.0
sg2034
F1.0
ssg2034
(dp3224
g1447
F1.0
sg2040
F1.0
ssg2040
(dp3225
g2034
F1.0
sg2046
F1.0
ssg2046
(dp3226
g2040
F1.0
sg2052
F1.0
ssg2052
(dp3227
g2046
F1.0
sg2058
F1.0
ssg2058
(dp3228
g2052
F1.0
sg2064
F1.0
sg2076
F1.0
ssg2346
(dp3229
g2352
F1.0
sg2340
F1.0
ssg2064
(dp3230
g2058
F1.0
sg2070
F1.0
ssg2070
(dp3231
g2064
F1.0
sg2076
F1.0
ssg1615
(dp3232
g1609
F1.0
sg1621
F1.0
ssg2076
(dp3233
g2210
F1.0
sg2082
F1.0
sg2058
F1.0
sg2070
F1.0
ssg2082
(dp3234
g2076
F1.0
sg2088
F1.0
ssg2088
(dp3235
g2210
F1.0
sg2082
F1.0
sg2094
F1.0
ssg2094
(dp3236
g2088
F1.0
sg2100
F1.0
ssg2100
(dp3237
g2094
F1.0
sg2106
F1.0
ssg2106
(dp3238
g2100
F1.0
sg2112
F1.0
ssg2112
(dp3239
g2106
F1.0
sg2118
F1.0
ssg2118
(dp3240
g2112
F1.0
sg2124
F1.0
ssg2124
(dp3241
g2118
F1.0
sg2130
F1.0
ssg2130
(dp3242
g2124
F1.0
sg1964
F1.0
ssg2340
(dp3243
g2334
F1.0
sg2346
F1.0
ssg1964
(dp3244
g2136
F1.0
sg2210
F1.0
sg1958
F1.0
sg2130
F1.0
sg1970
F1.0
ssg2136
(dp3245
g2142
F1.0
sg1958
F1.0
sg1393
F1.0
sg1964
F1.0
sg2210
F1.0
ssg2148
(dp3246
g2142
F1.0
sg2154
F1.0
ssg2142
(dp3247
g2136
F1.0
sg2148
F1.0
ssg2154
(dp3248
g2160
F1.0
sg2148
F1.0
ssg788
(dp3249
g782
F1.0
ssg2160
(dp3250
g2154
F1.0
sg1393
F1.0
ssg1393
(dp3251
g2178
F1.0
sg2166
F1.0
sg1387
F1.0
sg2160
F1.0
sg2136
F1.0
ssg1627
(dp3252
g1621
F1.0
sg1633
F1.0
ssg2166
(dp3253
g1393
F1.0
sg2172
F1.0
ssg2172
(dp3254
g2166
F1.0
sg2178
F1.0
ssg2178
(dp3255
g2278
F1.0
sg2172
F1.0
sg1393
F1.0
sg2184
F1.0
ssg2184
(dp3256
g2178
F1.0
sg2190
F1.0
ssg782
(dp3257
g788
F1.0
sg622
F1.0
ssg2190
(dp3258
g2184
F1.0
sg2196
F1.0
ssg2196
(dp3259
g2190
F1.0
sg2202
F1.0
ssg2558
(dp3260
g2020
F1.0
sg1456
F1.0
ssg2202
(dp3261
g2196
F1.0
ssg0
(g16
g2
Ntp3262
Rp3263
(dp3264
g20
F40.680596
sg6
(lp3265
sg22
S'S01'
p3266
sg24
F-73.955827
sg13
S'Franklin Av'
p3267
sb(dp3268
sg0
(g16
g2
Ntp3269
Rp3270
(dp3271
g20
F40.674772
sg6
(lp3272
sg22
S'S03'
p3273
sg24
F-73.957624
sg13
S'Park Pl'
p3274
sb(dp3275
sg0
(g16
g2
Ntp3276
Rp3277
(dp3278
g20
F40.670343
sg6
(lp3279
sg22
S'S04'
p3280
sg24
F-73.959245
sg13
S'Botanic Garden'
p3281
sb(dp3282
sg762
(dp3283
g756
F1.0
ssg2898
(dp3284
g3024
F1.0
sg2904
F1.0
ssg2904
(dp3285
g2898
F1.0
sg2910
F1.0
ssg1633
(dp3286
g1639
F1.0
sg1627
F1.0
ssg2910
(dp3287
g2904
F1.0
sg2916
F1.0
ssg2916
(dp3288
g2910
F1.0
sg2922
F1.0
ssg2922
(dp3289
g2916
F1.0
sg2928
F1.0
ssg2928
(dp3290
g2922
F1.0
sg2934
F1.0
ssg756
(dp3291
g750
F1.0
sg762
F1.0
ssg2934
(dp3292
g2928
F1.0
sg2940
F1.0
ssg2940
(dp3293
g2934
F1.0
sg2946
F1.0
ssg1866
(dp3294
g1519
F1.0
sg1872
F1.0
sg1594
F1.0
ssg2946
(dp3295
g2940
F1.0
sg2952
F1.0
ssg2952
(dp3296
g2946
F1.0
sg2958
F1.0
ssg2958
(dp3297
g2952
F1.0
sg2964
F1.0
ssg2964
(dp3298
g2958
F1.0
sg2970
F1.0
ssg1860
(dp3299
g1594
F1.0
sg1854
F1.0
ssg2970
(dp3300
g2964
F1.0
sg2976
F1.0
ssg2976
(dp3301
g2970
F1.0
sg2982
F1.0
ssg2528
(dp3302
g2522
F1.0
sg1830
F1.0
ssg2982
(dp3303
g2976
F1.0
sg2988
F1.0
ssg2988
(dp3304
g2982
F1.0
sg2994
F1.0
ssg2994
(dp3305
g2988
F1.0
sg3000
F1.0
ssg3000
(dp3306
g2994
F1.0
sg3006
F1.0
ssg1854
(dp3307
g1860
F1.0
sg1836
F1.0
sg1848
F1.0
ssg3006
(dp3308
g3000
F1.0
sg3012
F1.0
ssg3012
(dp3309
g3006
F1.0
sg3018
F1.0
ssg1702
(dp3310
g1696
F1.0
sg1708
F1.0
ssg3018
(dp3311
g3012
F1.0
sg3024
F1.0
ssg3024
(dp3312
g3018
F1.0
ssg1822
(dp3313
g1816
F1.0
ssg1816
(dp3314
g1822
F1.0
sg1810
F1.0
sg2026
F1.0
ssg2026
(dp3315
g2020
F1.0
sg1816
F1.0
ssg1696
(dp3316
g1690
F1.0
sg1702
F1.0
ssg1456
(dp3317
g2202
F1.0
sg2558
F1.0
sg2020
F1.0
sg1950
F1.0
sg1920
F1.0
ssg1944
(dp3318
g1938
F1.0
sg1950
F1.0
ssg1950
(dp3319
g1944
F1.0
sg1456
F1.0
ssg1938
(dp3320
g1944
F1.0
sg1932
F1.0
ssg1932
(dp3321
g1926
F1.0
sg1938
F1.0
ssg2510
(dp3322
g2504
F1.0
sg2516
F1.0
ssg1926
(dp3323
g1920
F1.0
sg1932
F1.0
ssg1920
(dp3324
g1884
F1.0
sg2552
F1.0
sg1456
F1.0
sg1914
F1.0
sg1926
F1.0
ssg1908
(dp3325
g1914
F1.0
sg1902
F1.0
ssg1914
(dp3326
g1920
F1.0
sg1908
F1.0
ssg1902
(dp3327
g1896
F1.0
sg1908
F1.0
ssg1684
(dp3328
g1678
F1.0
sg1830
F1.0
sg1690
F1.0
ssg1896
(dp3329
g1890
F1.0
sg1902
F1.0
ssg1890
(dp3330
g1884
F1.0
sg1896
F1.0
ssg1884
(dp3331
g1920
F1.0
sg1878
F1.0
sg1890
F1.0
sg1447
F1.0
ssg2662
(dp3332
g2656
F1.0
ssg2650
(dp3333
g2656
F1.0
sg2644
F1.0
ssg2492
(dp3334
g2486
F1.0
sg2498
F1.0
ssg2656
(dp3335
g2662
F1.0
sg2650
F1.0
ssg2644
(dp3336
g2638
F1.0
sg2650
F1.0
ssg2638
(dp3337
g2632
F1.0
sg2644
F1.0
ssg2632
(dp3338
g2626
F1.0
sg2638
F1.0
ssg2626
(dp3339
g2620
F1.0
sg2632
F1.0
ssg2486
(dp3340
g2480
F1.0
sg2492
F1.0
ssg2620
(dp3341
g2614
F1.0
sg2626
F1.0
ssg2614
(dp3342
g2608
F1.0
sg2620
F1.0
ssg2608
(dp3343
g2614
F1.0
sg2602
F1.0
ssg2602
(dp3344
g2608
F1.0
sg2596
F1.0
ssg1666
(dp3345
g1660
F1.0
sg1672
F1.0
ssg2596
(dp3346
g1294
F1.0
sg2602
F1.0
ssg1183
(dp3347
g1177
F1.0
sg1189
F1.0
ssg1177
(dp3348
g1142
F1.0
sg1183
F1.0
ssg1136
(dp3349
g1142
F1.0
sg1130
F1.0
ssg2474
(dp3350
g2480
F1.0
sg2468
F1.0
ssg1142
(dp3351
g1177
F1.0
sg1136
F1.0
sg1169
F1.0
ssg1130
(dp3352
g1124
F1.0
sg1136
F1.0
ssg1124
(dp3353
g1118
F1.0
sg1130
F1.0
ssg1118
(dp3354
g1112
F1.0
sg1124
F1.0
ssg1112
(dp3355
g1106
F1.0
sg1118
F1.0
ssg1106
(dp3356
g2738
F1.0
sg1112
F1.0
ssg1163
(dp3357
g1169
F1.0
sg1157
F1.0
ssg1169
(dp3358
g1142
F1.0
sg1163
F1.0
ssg1157
(dp3359
g1151
F1.0
sg1163
F1.0
ssg1151
(dp3360
g1142
F1.0
sg1157
F1.0
ssg1810
(dp3361
g1804
F1.0
sg1816
F1.0
ssg2278
(dp3362
g2178
F1.0
sg2284
F1.0
ssg1804
(dp3363
g1798
F1.0
sg1810
F1.0
ssg1798
(dp3364
g1792
F1.0
sg1804
F1.0
ssg1792
(dp3365
g1786
F1.0
sg1798
F1.0
ssg1786
(dp3366
g1780
F1.0
sg1792
F1.0
ssg1780
(dp3367
g1774
F1.0
sg1786
F1.0
ssg1774
(dp3368
g1768
F1.0
sg1780
F1.0
ssg2284
(dp3369
g2278
F1.0
sg2290
F1.0
ssg1768
(dp3370
g1762
F1.0
sg1774
F1.0
ssg1762
(dp3371
g1756
F1.0
sg1768
F1.0
ssg1756
(dp3372
g1750
F1.0
sg1762
F1.0
ssg1750
(dp3373
g1744
F1.0
sg1756
F1.0
ssg1744
(dp3374
g1738
F1.0
sg1750
F1.0
ssg1738
(dp3375
g1744
F1.0
sg1732
F1.0
ssg2462
(dp3376
g1303
F1.0
sg2468
F1.0
ssg2682
(dp3377
g2676
F1.0
sg1471
F1.0
ssg2676
(dp3378
g2670
F1.0
sg2682
F1.0
ssg670
(dp3379
g664
F1.0
sg676
F1.0
ssg664
(dp3380
g658
F1.0
sg670
F1.0
ssg658
(dp3381
g652
F1.0
sg664
F1.0
ssg2456
(dp3382
g1303
F1.0
sg2450
F1.0
ssg1294
(dp3383
g1270
F1.0
sg2504
F1.0
sg2596
F1.0
sg2498
F1.0
sg1288
F1.0
ssg646
(dp3384
g640
F1.0
sg652
F1.0
ssg1288
(dp3385
g1294
F1.0
sg1282
F1.0
ssg1282
(dp3386
g1288
F1.0
sg1276
F1.0
ssg1270
(dp3387
g1294
F1.0
sg1258
F1.0
sg1264
F1.0
sg1276
F1.0
ssg1276
(dp3388
g1270
F1.0
sg1282
F1.0
ssg2450
(dp3389
g2444
F1.0
sg2456
F1.0
ssg476
(dp3390
g470
F1.0
sg482
F1.0
ssg1264
(dp3391
g1270
F1.0
sg1258
F1.0
ssg1252
(dp3392
g1246
F1.0
sg1258
F1.0
ssg1258
(dp3393
g1270
F1.0
sg1240
F1.0
sg1252
F1.0
sg1264
F1.0
ssg1246
(dp3394
g1252
F1.0
sg1240
F1.0
ssg1240
(dp3395
g1234
F1.0
sg1213
F1.0
sg1258
F1.0
sg1246
F1.0
ssg2444
(dp3396
g2438
F1.0
sg2450
F1.0
ssg1234
(dp3397
g1228
F1.0
sg1240
F1.0
ssg1228
(dp3398
g1222
F1.0
sg1234
F1.0
ssg1222
(dp3399
g1213
F1.0
sg1228
F1.0
ssg1213
(dp3400
g2706
F1.0
sg1207
F1.0
sg1240
F1.0
sg1222
F1.0
ssg1207
(dp3401
g1201
F1.0
sg1213
F1.0
ssg1201
(dp3402
g1195
F1.0
sg1207
F1.0
ssg2438
(dp3403
g2432
F1.0
sg2444
F1.0
ssg1195
(dp3404
g1189
F1.0
sg1201
F1.0
ssg1189
(dp3405
g1183
F1.0
sg1195
F1.0
ssg0
(g16
g2
Ntp3406
Rp3407
(dp3408
g20
F40.681711
sg6
(lp3409
sg22
S'A63'
p3410
sg24
F-73.837683
sg13
S'104 St'
p3411
sb(dp3412
sg0
(g16
g2
Ntp3413
Rp3414
(dp3415
g20
F40.684331
sg6
(lp3416
sg22
S'A64'
p3417
sg24
F-73.832163
sg13
S'111 St'
p3418
sb(dp3419
sg568
(dp3420
g562
F1.0
sg39
F1.0
ssg556
(dp3421
g550
F1.0
sg562
F1.0
ssg2432
(dp3422
g2426
F1.0
sg2438
F1.0
ssg550
(dp3423
g544
F1.0
sg556
F1.0
ssg2552
(dp3424
g1920
F1.0
sg2546
F1.0
ssg538
(dp3425
g159
F1.0
sg544
F1.0
ssg159
(dp3426
g153
F1.0
sg165
F1.0
sg538
F1.0
ssg153
(dp3427
g99
F1.0
sg532
F1.0
sg159
F1.0
ssg532
(dp3428
g526
F1.0
sg153
F1.0
ssg2426
(dp3429
g2420
F1.0
sg2432
F1.0
ssg526
(dp3430
g520
F1.0
sg532
F1.0
ssg520
(dp3431
g99
F1.0
sg526
F1.0
ssg99
(dp3432
g520
F1.0
sg153
F1.0
sg90
F1.0
sg147
F1.0
sg776
F1.0
ssg147
(dp3433
g141
F1.0
sg99
F1.0
ssg141
(dp3434
g135
F1.0
sg147
F1.0
ssg135
(dp3435
g129
F1.0
sg141
F1.0
ssg2420
(dp3436
g2414
F1.0
sg2426
F1.0
ssg129
(dp3437
g123
F1.0
sg135
F1.0
ssg123
(dp3438
g117
F1.0
sg129
F1.0
ssg117
(dp3439
g108
F1.0
sg123
F1.0
ssg108
(dp3440
g117
F1.0
sg682
F1.0
sg512
F1.0
ssg776
(dp3441
g99
F1.0
sg770
F1.0
ssg2394
(dp3442
g2388
F1.0
ssg2388
(dp3443
g2382
F1.0
sg2394
F1.0
ssg90
(dp3444
g99
F1.0
sg770
F1.0
sg84
F1.0
sg762
F1.0
ssg2376
(dp3445
g2370
F1.0
sg2382
F1.0
ssg84
(dp3446
g78
F1.0
sg90
F1.0
ssg72
(dp3447
g66
F1.0
sg78
F1.0
ssg78
(dp3448
g72
F1.0
sg84
F1.0
ssg2408
(dp3449
g2402
F1.0
sg2414
F1.0
ssg66
(dp3450
g72
F1.0
sg60
F1.0
ssg60
(dp3451
g54
F1.0
sg66
F1.0
ssg54
(dp3452
g48
F1.0
sg60
F1.0
ssg48
(dp3453
g788
F1.0
sg54
F1.0
ssg1528
(dp3454
g2012
F1.0
sg1540
F1.0
sg2334
F1.0
sg1534
F1.0
ssg2334
(dp3455
g1528
F1.0
sg2340
F1.0
ssg2402
(dp3456
g2408
F1.0
sg2270
F1.0
ssg1519
(dp3457
g1588
F1.0
sg1513
F1.0
sg1594
F1.0
sg1866
F1.0
ssg1594
(dp3458
g2534
F1.0
sg1860
F1.0
sg1866
F1.0
sg1519
F1.0
ssg750
(dp3459
g744
F1.0
sg756
F1.0
ssg744
(dp3460
g750
F1.0
sg738
F1.0
ssg682
(dp3461
g676
F1.0
ssg676
(dp3462
g670
F1.0
sg682
F1.0
ssg964
(dp3463
g958
F1.0
ssg2670
(dp3464
g2504
F1.0
sg2676
F1.0
ssg952
(dp3465
g946
F1.0
sg958
F1.0
ssg958
(dp3466
g952
F1.0
sg964
F1.0
ssg946
(dp3467
g952
F1.0
sg940
F1.0
ssg934
(dp3468
g928
F1.0
sg940
F1.0
ssg940
(dp3469
g934
F1.0
sg946
F1.0
ssg2504
(dp3470
g1294
F1.0
sg2670
F1.0
sg2498
F1.0
sg2510
F1.0
ssg928
(dp3471
g934
F1.0
sg922
F1.0
ssg922
(dp3472
g916
F1.0
sg928
F1.0
ssg916
(dp3473
g910
F1.0
sg922
F1.0
ssg910
(dp3474
g904
F1.0
sg916
F1.0
ssg898
(dp3475
g892
F1.0
sg904
F1.0
ssg904
(dp3476
g910
F1.0
sg898
F1.0
ssg892
(dp3477
g886
F1.0
sg898
F1.0
ssg880
(dp3478
g886
F1.0
sg874
F1.0
ssg886
(dp3479
g892
F1.0
sg880
F1.0
ssg874
(dp3480
g868
F1.0
sg880
F1.0
ssg652
(dp3481
g646
F1.0
sg658
F1.0
ssg868
(dp3482
g598
F1.0
sg874
F1.0
ssg598
(dp3483
g868
F1.0
sg862
F1.0
sg592
F1.0
sg604
F1.0
ssg862
(dp3484
g856
F1.0
sg598
F1.0
ssg856
(dp3485
g592
F1.0
sg862
F1.0
ssg592
(dp3486
g850
F1.0
sg598
F1.0
sg586
F1.0
sg856
F1.0
ssg850
(dp3487
g844
F1.0
sg592
F1.0
ssg844
(dp3488
g838
F1.0
sg850
F1.0
ssg586
(dp3489
g580
F1.0
sg838
F1.0
sg592
F1.0
ssg838
(dp3490
g844
F1.0
sg586
F1.0
ssg640
(dp3491
g634
F1.0
sg646
F1.0
ssg580
(dp3492
g832
F1.0
sg586
F1.0
sg574
F1.0
ssg826
(dp3493
g832
F1.0
sg820
F1.0
ssg832
(dp3494
g580
F1.0
sg826
F1.0
ssg820
(dp3495
g574
F1.0
sg826
F1.0
ssg574
(dp3496
g580
F1.0
sg820
F1.0
sg39
F1.0
sg814
F1.0
ssg814
(dp3497
g808
F1.0
sg574
F1.0
ssg634
(dp3498
g628
F1.0
sg640
F1.0
ssg808
(dp3499
g802
F1.0
sg814
F1.0
ssg802
(dp3500
g796
F1.0
sg808
F1.0
ssg796
(dp3501
g39
F1.0
sg802
F1.0
ssg39
(dp3502
g33
F1.0
sg796
F1.0
sg568
F1.0
sg574
F1.0
ssg33
(dp3503
g27
F1.0
sg39
F1.0
ssg27
(dp3504
g33
F1.0
sg18
F1.0
ssg628
(dp3505
g482
F1.0
sg634
F1.0
ssg0
(g16
g2
Ntp3506
Rp3507
(dp3508
g20
F40.701411
sg6
(lp3509
sg22
S'140'
p3510
sg24
F-74.013205
sg13
S'South Ferry Loop'
p3511
sb(dp3512
sg18
(dp3513
g964
F1.0
sg27
F1.0
ssg738
(dp3514
g732
F1.0
sg744
F1.0
ssg732
(dp3515
g726
F1.0
sg738
F1.0
ssg726
(dp3516
g720
F1.0
sg732
F1.0
ssg482
(dp3517
g476
F1.0
sg488
F1.0
sg628
F1.0
ssg720
(dp3518
g714
F1.0
sg726
F1.0
ssg714
(dp3519
g708
F1.0
sg720
F1.0
ssg708
(dp3520
g702
F1.0
sg714
F1.0
ssg702
(dp3521
g708
F1.0
sg696
F1.0
ssg696
(dp3522
g690
F1.0
sg702
F1.0
ssg690
(dp3523
g422
F1.0
sg696
F1.0
ssg422
(dp3524
g306
F1.0
sg428
F1.0
sg690
F1.0
ssg177
(dp3525
g171
F1.0
sg183
F1.0
ssg183
(dp3526
g177
F1.0
sg189
F1.0
ssg470
(dp3527
g464
F1.0
sg476
F1.0
ssg171
(dp3528
g177
F1.0
sg165
F1.0
ssg165
(dp3529
g171
F1.0
sg159
F1.0
ssg512
(dp3530
g506
F1.0
ssg500
(dp3531
g494
F1.0
sg506
F1.0
ssg506
(dp3532
g500
F1.0
sg512
F1.0
ssg464
(dp3533
g458
F1.0
sg470
F1.0
ssg494
(dp3534
g500
F1.0
sg488
F1.0
ssg488
(dp3535
g494
F1.0
sg482
F1.0
ssg414
(dp3536
g408
F1.0
ssg408
(dp3537
g402
F1.0
sg414
F1.0
ssg402
(dp3538
g396
F1.0
sg408
F1.0
ssg396
(dp3539
g390
F1.0
sg402
F1.0
ssg458
(dp3540
g452
F1.0
sg464
F1.0
ssg390
(dp3541
g384
F1.0
sg396
F1.0
ssg384
(dp3542
g378
F1.0
sg390
F1.0
ssg378
(dp3543
g372
F1.0
sg384
F1.0
ssg372
(dp3544
g378
F1.0
sg366
F1.0
ssg366
(dp3545
g360
F1.0
sg372
F1.0
ssg452
(dp3546
g446
F1.0
sg458
F1.0
ssg354
(dp3547
g348
F1.0
sg360
F1.0
ssg360
(dp3548
g354
F1.0
sg366
F1.0
ssg348
(dp3549
g354
F1.0
sg342
F1.0
ssg342
(dp3550
g336
F1.0
sg348
F1.0
ssg336
(dp3551
g330
F1.0
sg342
F1.0
ssg446
(dp3552
g440
F1.0
sg452
F1.0
ssg330
(dp3553
g324
F1.0
sg336
F1.0
ssg318
(dp3554
g324
F1.0
sg312
F1.0
ssg324
(dp3555
g330
F1.0
sg318
F1.0
ssg312
(dp3556
g306
F1.0
sg318
F1.0
ssg306
(dp3557
g276
F1.0
sg422
F1.0
sg300
F1.0
sg312
F1.0
ssg300
(dp3558
g294
F1.0
sg306
F1.0
ssg440
(dp3559
g434
F1.0
sg446
F1.0
ssg294
(dp3560
g288
F1.0
sg300
F1.0
ssg288
(dp3561
g282
F1.0
sg294
F1.0
ssg282
(dp3562
g276
F1.0
sg288
F1.0
ssg276
(dp3563
g282
F1.0
sg270
F1.0
sg306
F1.0
sg258
F1.0
ssg270
(dp3564
g264
F1.0
sg276
F1.0
ssg434
(dp3565
g440
F1.0
sg428
F1.0
ssg264
(dp3566
g258
F1.0
sg270
F1.0
ssg252
(dp3567
g246
F1.0
sg258
F1.0
ssg258
(dp3568
g246
F1.0
sg252
F1.0
sg276
F1.0
sg264
F1.0
ssg246
(dp3569
g222
F1.0
sg258
F1.0
sg252
F1.0
sg240
F1.0
ssg234
(dp3570
g240
F1.0
sg228
F1.0
ssg240
(dp3571
g246
F1.0
sg234
F1.0
ssg228
(dp3572
g222
F1.0
sg234
F1.0
ssg222
(dp3573
g246
F1.0
sg216
F1.0
sg228
F1.0
sg189
F1.0
ssg216
(dp3574
g210
F1.0
sg222
F1.0
ssg210
(dp3575
g204
F1.0
sg216
F1.0
ssg204
(dp3576
g210
F1.0
sg198
F1.0
ssg428
(dp3577
g422
F1.0
sg434
F1.0
sg622
F1.0
sssg14
(dp3578
g2653
g2650
sg2659
g2656
sg2665
g2662
sg1893
g1890
sg1887
g1884
sg2647
g2644
sg2641
g2638
sg1008
g1005
sg1014
g1011
sg1020
g1017
sg1026
g1023
sg1032
g1029
sg1038
g1035
sg1044
g1041
sg1050
g1047
sg1056
g1053
sg1324
g1321
sg1330
g1327
sg1336
g1333
sg1342
g1339
sg1741
g1738
sg1747
g1744
sg1753
g1750
sg1759
g1756
sg1765
g1762
sg1771
g1768
sg1729
g1726
sg1735
g1732
sg2567
g2564
sg2573
g2570
sg2561
g2558
sg2023
g2020
sg2591
g2588
sg1225
g1222
sg2579
g2576
sg2585
g2582
sg1204
g1201
sg1881
g1878
sg2323
g2320
sg2317
g2314
sg2299
g2296
sg2293
g2290
sg2311
g2308
sg2305
g2302
sg2287
g2284
sg2281
g2278
sg1115
g1112
sg1109
g1106
sg1172
g1169
sg1166
g1163
sg1160
g1157
sg1154
g1151
sg1663
g1660
sg1657
g1654
sg937
g934
sg931
g928
sg961
g958
sg967
g964
sg949
g946
sg943
g940
sg955
g952
sg3179
g3176
sg1273
g1270
sg3171
g3168
sg1267
g1264
sg517
g108
sg419
g189
sg1279
g1276
sg2667
g1294
sg2673
g2670
sg2507
g2504
sg2169
g2166
sg773
g770
sg1261
g1258
sg2525
g2522
sg1899
g1896
sg1905
g1902
sg1911
g1908
sg1917
g1914
sg1923
g1920
sg1929
g1926
sg1935
g1932
sg1941
g1938
sg1947
g1944
sg2213
g2210
sg2261
g2258
sg2009
g2006
sg2255
g2252
sg2249
g2246
sg2003
g2000
sg2237
g2234
sg2243
g2240
sg2231
g2228
sg1997
g1994
sg523
g520
sg687
g99
sg162
g159
sg156
g153
sg535
g532
sg529
g526
sg559
g556
sg553
g550
sg547
g544
sg541
g538
sg3027
g3024
sg3021
g3018
sg321
g318
sg315
g312
sg23
g18
sg3510
g3507
sg357
g354
sg351
g348
sg369
g366
sg363
g360
sg333
g330
sg327
g324
sg345
g342
sg339
g336
sg2399
g1312
sg2273
g2270
sg2267
g2264
sg2015
g2012
sg2709
g2706
sg2741
g2738
sg2735
g2732
sg2723
g2720
sg2717
g2714
sg2729
g2726
sg817
g814
sg577
g574
sg823
g820
sg829
g826
sg793
g39
sg799
g796
sg805
g802
sg811
g808
sg30
g27
sg36
g33
sg741
g738
sg747
g744
sg753
g750
sg759
g756
sg765
g762
sg2157
g2154
sg2163
g2160
sg2331
g1393
sg1967
g1964
sg2139
g2136
sg729
g726
sg735
g732
sg2782
g2779
sg2776
g2773
sg2770
g2767
sg2764
g2761
sg2758
g2755
sg2752
g2749
sg1068
g1065
sg1062
g1059
sg1086
g1083
sg1080
g1077
sg1074
g1071
sg1098
g1095
sg1092
g1089
sg1723
g1720
sg1717
g1714
sg2367
g2364
sg2373
g2370
sg2379
g2376
sg2385
g2382
sg2391
g2388
sg2397
g2394
sg2355
g2352
sg2361
g2358
sg126
g123
sg132
g129
sg1285
g1282
sg120
g117
sg150
g147
sg1291
g1288
sg138
g135
sg144
g141
sg1869
g1866
sg1875
g1872
sg2519
g2516
sg779
g776
sg2531
g2528
sg1255
g1252
sg2329
g2326
sg297
g294
sg303
g300
sg309
g306
sg273
g270
sg279
g276
sg285
g282
sg291
g288
sg261
g258
sg267
g264
sg1480
g1477
sg1486
g1483
sg1492
g1489
sg1498
g1495
sg2685
g2682
sg1474
g1471
sg2679
g2676
sg2872
g2869
sg2890
g2887
sg2884
g2881
sg1243
g1240
sg1249
g1246
sg1231
g1228
sg1827
g1645
sg1642
g1639
sg1705
g1702
sg1237
g1234
sg2181
g2178
sg1699
g1696
sg2193
g2190
sg1693
g1690
sg1681
g1678
sg2711
g1213
sg1210
g1207
sg2031
g1456
sg1953
g1950
sg1825
g1822
sg1819
g1816
sg2029
g2026
sg685
g682
sg673
g670
sg679
g676
sg661
g658
sg667
g664
sg649
g646
sg655
g652
sg2973
g2970
sg2979
g2976
sg2961
g2958
sg2967
g2964
sg2997
g2994
sg3003
g3000
sg2985
g2982
sg2991
g2988
sg3009
g3006
sg3015
g3012
sg2483
g2480
sg2489
g2486
sg2495
g2492
sg2501
g2498
sg2593
g1303
sg2465
g2462
sg2471
g2468
sg2477
g2474
sg2459
g2456
sg601
g598
sg865
g862
sg859
g856
sg595
g592
sg853
g850
sg847
g844
sg841
g838
sg589
g586
sg583
g580
sg835
g832
sg2275
g1402
sg1414
g1411
sg1426
g1423
sg1420
g1417
sg1432
g1429
sg1444
g1441
sg1438
g1435
sg699
g696
sg693
g690
sg425
g422
sg723
g720
sg717
g714
sg711
g708
sg705
g702
sg186
g183
sg180
g177
sg2836
g2833
sg2812
g2809
sg2818
g2815
sg2824
g2821
sg2830
g2827
sg2788
g2785
sg2794
g2791
sg2800
g2797
sg2806
g2803
sg2205
g2202
sg2199
g2196
sg1711
g1708
sg2175
g2172
sg1675
g1672
sg2187
g2184
sg1669
g1666
sg2555
g2552
sg2549
g2546
sg2543
g2540
sg2017
g1519
sg1955
g1594
sg1863
g1860
sg1857
g1854
sg2349
g2346
sg2343
g2340
sg2337
g2334
sg1531
g1528
sg1851
g1848
sg1845
g1842
sg81
g78
sg75
g72
sg767
g90
sg87
g84
sg57
g54
sg51
g48
sg69
g66
sg63
g60
sg2955
g2952
sg2949
g2946
sg2919
g2916
sg2913
g2910
sg2907
g2904
sg2943
g2940
sg2937
g2934
sg2931
g2928
sg2925
g2922
sg497
g494
sg491
g488
sg509
g506
sg503
g500
sg515
g512
sg255
g252
sg249
g246
sg243
g240
sg237
g234
sg231
g228
sg225
g222
sg219
g216
sg213
g210
sg207
g204
sg201
g198
sg1573
g1570
sg1579
g1576
sg1585
g1582
sg1591
g1588
sg1516
g1513
sg1510
g1507
sg1504
g1501
sg2145
g2142
sg2151
g2148
sg1624
g1621
sg1612
g1609
sg1618
g1615
sg1606
g1603
sg1630
g1627
sg1636
g1633
sg2629
g2626
sg2635
g2632
sg2617
g2614
sg2623
g2620
sg2605
g2602
sg2611
g2608
sg2599
g2596
sg1468
g1465
sg467
g464
sg461
g458
sg479
g476
sg473
g470
sg631
g628
sg485
g482
sg643
g640
sg637
g634
sg455
g452
sg449
g446
sg2453
g2450
sg2447
g2444
sg2441
g2438
sg2435
g2432
sg2429
g2426
sg2423
g2420
sg2417
g2414
sg2411
g2408
sg2405
g2402
sg3417
g3414
sg3093
g3090
sg1198
g1195
sg1192
g1189
sg3410
g3407
sg1121
g1118
sg1127
g1124
sg1180
g1177
sg1186
g1183
sg1133
g1130
sg1139
g1136
sg1174
g1142
sg895
g892
sg901
g898
sg883
g880
sg889
g886
sg919
g916
sg925
g922
sg907
g904
sg913
g910
sg871
g868
sg877
g874
sg2055
g2052
sg2061
g2058
sg2043
g2040
sg2049
g2046
sg2037
g2034
sg2207
g1447
sg2067
g2064
sg2073
g2070
sg174
g171
sg168
g165
sg791
g788
sg785
g782
sg1366
g1363
sg1360
g1357
sg1378
g1375
sg1372
g1369
sg1390
g1387
sg1384
g1381
sg2537
g2534
sg1354
g1351
sg1348
g1345
sg2848
g2845
sg2842
g2839
sg2854
g2851
sg2866
g2863
sg2860
g2857
sg2878
g2875
sg1777
g1774
sg1789
g1786
sg1783
g1780
sg1801
g1798
sg1795
g1792
sg1813
g1810
sg1807
g1804
sg2225
g2222
sg1991
g1988
sg1833
g1830
sg1839
g1836
sg1961
g1958
sg1979
g1976
sg1973
g1970
sg2219
g2216
sg1985
g1982
sg565
g562
sg571
g568
sg607
g604
sg613
g610
sg619
g616
sg625
g622
sg431
g428
sg437
g434
sg443
g440
sg2901
g2898
sg3266
g3263
sg3273
g3270
sg3280
g3277
sg984
g981
sg978
g975
sg990
g987
sg1002
g999
sg996
g993
sg399
g396
sg387
g384
sg393
g390
sg417
g414
sg405
g402
sg411
g408
sg375
g372
sg381
g378
sg1687
g1684
sg1543
g1540
sg1537
g1534
sg1555
g1552
sg1549
g1546
sg2697
g2694
sg2703
g2700
sg2691
g2688
sg1567
g1564
sg1561
g1558
sg2121
g2118
sg2133
g2130
sg2127
g2124
sg2513
g2510
sg2115
g2112
sg2109
g2106
sg2103
g2100
sg2097
g2094
sg2091
g2088
sg2085
g2082
sg2079
g2076
ssb.